SF:/Users/artemzimin/Documents/LR1_3/DBMS_Lab_Project/CommandParser.cpp
FN:4,_ZN13CommandParser5parseERKNSt3__112basic_stringIcNS0_11char_traitsIcEENS0_9allocatorIcEEEE
FNDA:3,_ZN13CommandParser5parseERKNSt3__112basic_stringIcNS0_11char_traitsIcEENS0_9allocatorIcEEEE
FNF:1
FNH:1
DA:4,3
DA:5,3
DA:6,3
DA:7,3
DA:8,3
BRF:0
BRH:0
LF:5
LH:5
end_of_record
SF:/Users/artemzimin/Documents/LR1_3/DBMS_Lab_Project/DBMS.cpp
FN:210,_ZN4DBMS7executeERKNSt3__16vectorINS0_12basic_stringIcNS0_11char_traitsIcEENS0_9allocatorIcEEEENS5_IS7_EEEE
FN:374,_ZN4DBMS5clearEv
FN:387,_ZN4DBMS13loadStructureERKNSt3__112basic_stringIcNS0_11char_traitsIcEENS0_9allocatorIcEEEES8_S8_
FN:400,_ZNK4DBMS12serializeAllEv
FN:415,_ZNK4DBMS8printAllEv
FN:23,DBMS.cpp:_ZN12_GLOBAL__N_114solveAsteroidsERK5ArrayINSt3__112basic_stringIcNS1_11char_traitsIcEENS1_9allocatorIcEEEEE
FN:64,DBMS.cpp:_ZN12_GLOBAL__N_117solveMinPartitionERK3SetINSt3__112basic_stringIcNS1_11char_traitsIcEENS1_9allocatorIcEEEEERS8_SB_
FN:129,DBMS.cpp:_ZN12_GLOBAL__N_112solveFindSumERK5ArrayINSt3__112basic_stringIcNS1_11char_traitsIcEENS1_9allocatorIcEEEEEiRS8_
FN:173,DBMS.cpp:_ZN12_GLOBAL__N_18bst_task6insertERNSt3__110unique_ptrINS0_4NodeENS1_14default_deleteIS3_EEEEii
FN:170,DBMS.cpp:_ZN12_GLOBAL__N_18bst_task4NodeC2Ei
FN:188,DBMS.cpp:_ZN12_GLOBAL__N_121solveLongestSubstringERKNSt3__112basic_stringIcNS0_11char_traitsIcEENS0_9allocatorIcEEEE
FN:15,DBMS.cpp:_ZN12_GLOBAL__N_112compute_hashERKNSt3__112basic_stringIcNS0_11char_traitsIcEENS0_9allocatorIcEEEE
FNDA:105,_ZN4DBMS7executeERKNSt3__16vectorINS0_12basic_stringIcNS0_11char_traitsIcEENS0_9allocatorIcEEEENS5_IS7_EEEE
FNDA:21,_ZN4DBMS5clearEv
FNDA:4,_ZN4DBMS13loadStructureERKNSt3__112basic_stringIcNS0_11char_traitsIcEENS0_9allocatorIcEEEES8_S8_
FNDA:2,_ZNK4DBMS12serializeAllEv
FNDA:0,_ZNK4DBMS8printAllEv
FNDA:2,DBMS.cpp:_ZN12_GLOBAL__N_114solveAsteroidsERK5ArrayINSt3__112basic_stringIcNS1_11char_traitsIcEENS1_9allocatorIcEEEEE
FNDA:1,DBMS.cpp:_ZN12_GLOBAL__N_117solveMinPartitionERK3SetINSt3__112basic_stringIcNS1_11char_traitsIcEENS1_9allocatorIcEEEEERS8_SB_
FNDA:1,DBMS.cpp:_ZN12_GLOBAL__N_112solveFindSumERK5ArrayINSt3__112basic_stringIcNS1_11char_traitsIcEENS1_9allocatorIcEEEEEiRS8_
FNDA:14,DBMS.cpp:_ZN12_GLOBAL__N_18bst_task6insertERNSt3__110unique_ptrINS0_4NodeENS1_14default_deleteIS3_EEEEii
FNDA:6,DBMS.cpp:_ZN12_GLOBAL__N_18bst_task4NodeC2Ei
FNDA:3,DBMS.cpp:_ZN12_GLOBAL__N_121solveLongestSubstringERKNSt3__112basic_stringIcNS0_11char_traitsIcEENS0_9allocatorIcEEEE
FNDA:0,DBMS.cpp:_ZN12_GLOBAL__N_112compute_hashERKNSt3__112basic_stringIcNS0_11char_traitsIcEENS0_9allocatorIcEEEE
FNF:12
FNH:10
DA:15,0
DA:16,0
DA:17,0
DA:18,0
DA:19,0
DA:20,0
DA:21,0
DA:23,2
DA:24,2
DA:25,2
DA:26,7
DA:27,5
DA:28,5
DA:29,5
DA:30,5
DA:32,5
DA:33,5
DA:34,5
DA:35,5
DA:36,2
DA:37,2
DA:38,1
DA:39,1
DA:40,1
DA:41,0
DA:42,1
DA:43,1
DA:44,1
DA:45,1
DA:46,1
DA:47,2
DA:48,5
DA:49,3
DA:50,3
DA:51,5
DA:53,2
DA:54,2
DA:55,4
DA:56,2
DA:57,2
DA:58,4
DA:59,2
DA:60,2
DA:61,2
DA:62,2
DA:64,1
DA:65,1
DA:66,1
DA:67,1
DA:69,1
DA:70,1
DA:71,5
DA:72,4
DA:73,4
DA:74,4
DA:75,4
DA:76,4
DA:77,4
DA:78,4
DA:79,4
DA:80,1
DA:82,1
DA:83,1
DA:85,1
DA:86,1
DA:87,1
DA:89,5
DA:90,29
DA:91,25
DA:92,5
DA:93,5
DA:94,5
DA:95,25
DA:96,4
DA:98,1
DA:99,1
DA:100,1
DA:101,1
DA:102,1
DA:103,1
DA:104,1
DA:106,1
DA:107,1
DA:108,2
DA:109,1
DA:110,1
DA:111,1
DA:112,1
DA:113,1
DA:114,1
DA:115,1
DA:117,5
DA:118,4
DA:119,3
DA:120,3
DA:121,4
DA:123,1
DA:124,1
DA:126,1
DA:127,1
DA:129,1
DA:130,1
DA:131,1
DA:132,7
DA:133,6
DA:134,6
DA:135,6
DA:136,6
DA:137,6
DA:138,6
DA:140,1
DA:141,1
DA:142,1
DA:143,1
DA:145,7
DA:146,6
DA:147,6
DA:148,6
DA:149,1
DA:150,1
DA:151,1
DA:152,1
DA:153,4
DA:154,3
DA:155,3
DA:156,1
DA:157,1
DA:158,1
DA:159,1
DA:160,6
DA:161,6
DA:162,1
DA:163,1
DA:170,6
DA:173,14
DA:174,14
DA:175,6
DA:176,6
DA:177,6
DA:178,8
DA:179,4
DA:180,4
DA:181,4
DA:182,4
DA:183,4
DA:184,0
DA:185,4
DA:188,3
DA:189,3
DA:190,3
DA:191,3
DA:192,3
DA:193,22
DA:194,19
DA:195,19
DA:196,19
DA:197,11
DA:198,11
DA:199,11
DA:200,11
DA:201,11
DA:202,19
DA:203,19
DA:204,19
DA:205,3
DA:206,3
DA:210,105
DA:211,105
DA:212,104
DA:214,104
DA:215,104
DA:217,104
DA:218,3
DA:219,3
DA:220,3
DA:221,101
DA:222,3
DA:223,3
DA:224,3
DA:227,98
DA:228,9
DA:229,33
DA:230,8
DA:231,9
DA:232,89
DA:233,68
DA:234,67
DA:235,66
DA:238,65
DA:239,61
DA:242,57
DA:243,55
DA:246,53
DA:247,52
DA:248,51
DA:249,50
DA:250,49
DA:251,47
DA:252,47
DA:253,46
DA:254,46
DA:257,46
DA:258,45
DA:259,43
DA:260,42
DA:261,41
DA:262,41
DA:263,41
DA:264,41
DA:265,41
DA:266,40
DA:269,38
DA:270,36
DA:271,34
DA:274,34
DA:275,1
DA:276,1
DA:277,1
DA:278,1
DA:279,33
DA:280,2
DA:281,2
DA:282,2
DA:283,31
DA:284,1
DA:285,1
DA:286,1
DA:287,1
DA:290,30
DA:291,1
DA:292,1
DA:293,1
DA:294,1
DA:295,29
DA:296,2
DA:297,2
DA:298,2
DA:299,27
DA:300,1
DA:301,1
DA:302,1
DA:303,1
DA:306,26
DA:307,2
DA:308,8
DA:309,2
DA:310,2
DA:311,24
DA:312,23
DA:315,16
DA:316,2
DA:317,2
DA:318,2
DA:319,2
DA:320,14
DA:321,1
DA:322,1
DA:323,1
DA:324,1
DA:325,13
DA:326,1
DA:327,1
DA:328,1
DA:329,1
DA:330,0
DA:331,1
DA:332,12
DA:333,1
DA:334,1
DA:335,1
DA:336,1
DA:337,7
DA:338,6
DA:339,6
DA:340,6
DA:341,6
DA:342,6
DA:343,6
DA:344,1
DA:345,1
DA:346,11
DA:347,3
DA:348,3
DA:349,3
DA:350,8
DA:351,1
DA:352,1
DA:353,1
DA:354,1
DA:355,7
DA:356,3
DA:357,3
DA:358,3
DA:359,3
DA:360,4
DA:361,3
DA:362,3
DA:363,3
DA:365,7
DA:366,7
DA:367,7
DA:368,0
DA:369,0
DA:371,1
DA:372,104
DA:374,21
DA:375,21
DA:376,21
DA:377,21
DA:378,21
DA:379,21
DA:380,21
DA:381,21
DA:382,21
DA:383,21
DA:384,21
DA:385,21
DA:387,4
DA:388,4
DA:389,2
DA:390,2
DA:391,2
DA:392,0
DA:393,0
DA:394,0
DA:395,0
DA:396,0
DA:397,0
DA:398,4
DA:400,2
DA:401,2
DA:402,2
DA:403,2
DA:404,2
DA:405,2
DA:406,2
DA:407,2
DA:408,2
DA:409,2
DA:410,2
DA:411,2
DA:412,2
DA:413,2
DA:415,0
BRDA:26,0,0,5
BRDA:26,0,1,2
BRDA:32,0,0,5
BRDA:32,0,1,2
BRDA:35,0,0,3
BRDA:35,0,1,2
BRDA:35,1,2,2
BRDA:35,1,3,1
BRDA:35,2,4,2
BRDA:35,2,5,0
BRDA:37,0,0,1
BRDA:37,0,1,1
BRDA:40,0,0,0
BRDA:40,0,1,1
BRDA:48,0,0,3
BRDA:48,0,1,2
BRDA:55,0,0,2
BRDA:55,0,1,2
BRDA:58,0,0,2
BRDA:58,0,1,2
BRDA:71,0,0,4
BRDA:71,0,1,1
BRDA:89,0,0,4
BRDA:89,0,1,1
BRDA:90,0,0,25
BRDA:90,0,1,4
BRDA:91,0,0,12
BRDA:91,0,1,38
BRDA:91,1,2,5
BRDA:91,1,3,2
BRDA:99,0,0,1
BRDA:99,0,1,0
BRDA:100,0,0,1
BRDA:100,0,1,0
BRDA:108,0,0,1
BRDA:108,0,1,1
BRDA:108,1,2,1
BRDA:108,1,3,0
BRDA:110,0,0,1
BRDA:110,0,1,0
BRDA:117,0,0,4
BRDA:117,0,1,1
BRDA:118,0,0,3
BRDA:118,0,1,1
BRDA:132,0,0,6
BRDA:132,0,1,1
BRDA:145,0,0,6
BRDA:145,0,1,1
BRDA:148,0,0,1
BRDA:148,0,1,5
BRDA:149,0,0,1
BRDA:149,0,1,1
BRDA:153,0,0,3
BRDA:153,0,1,1
BRDA:154,0,0,1
BRDA:154,0,1,2
BRDA:174,0,0,6
BRDA:174,0,1,8
BRDA:178,0,0,4
BRDA:178,0,1,4
BRDA:181,0,0,4
BRDA:181,0,1,0
BRDA:189,0,0,0
BRDA:189,0,1,3
BRDA:193,0,0,19
BRDA:193,0,1,3
BRDA:196,0,0,11
BRDA:196,0,1,8
BRDA:198,0,0,11
BRDA:198,0,1,0
BRDA:211,0,0,1
BRDA:211,0,1,104
BRDA:215,0,0,0
BRDA:215,0,1,104
BRDA:217,0,0,3
BRDA:217,0,1,101
BRDA:218,0,0,0
BRDA:218,0,1,3
BRDA:219,0,0,1
BRDA:219,0,1,2
BRDA:221,0,0,3
BRDA:221,0,1,98
BRDA:222,0,0,0
BRDA:222,0,1,3
BRDA:223,0,0,1
BRDA:223,0,1,2
BRDA:227,0,0,9
BRDA:227,0,1,89
BRDA:228,0,0,1
BRDA:228,0,1,8
BRDA:229,0,0,25
BRDA:229,0,1,8
BRDA:232,0,0,21
BRDA:232,0,1,68
BRDA:232,1,2,0
BRDA:232,1,3,21
BRDA:233,0,0,1
BRDA:233,0,1,67
BRDA:233,1,2,0
BRDA:233,1,3,1
BRDA:234,0,0,1
BRDA:234,0,1,66
BRDA:234,1,2,0
BRDA:234,1,3,1
BRDA:235,0,0,1
BRDA:235,0,1,65
BRDA:235,1,2,0
BRDA:235,1,3,1
BRDA:238,0,0,4
BRDA:238,0,1,61
BRDA:238,1,2,0
BRDA:238,1,3,4
BRDA:239,0,0,4
BRDA:239,0,1,57
BRDA:239,1,2,0
BRDA:239,1,3,4
BRDA:242,0,0,2
BRDA:242,0,1,55
BRDA:242,1,2,0
BRDA:242,1,3,2
BRDA:243,0,0,2
BRDA:243,0,1,53
BRDA:243,1,2,0
BRDA:243,1,3,2
BRDA:246,0,0,1
BRDA:246,0,1,52
BRDA:246,1,2,0
BRDA:246,1,3,1
BRDA:247,0,0,1
BRDA:247,0,1,51
BRDA:247,1,2,0
BRDA:247,1,3,1
BRDA:248,0,0,1
BRDA:248,0,1,50
BRDA:248,1,2,0
BRDA:248,1,3,1
BRDA:249,0,0,1
BRDA:249,0,1,49
BRDA:249,1,2,0
BRDA:249,1,3,1
BRDA:250,0,0,2
BRDA:250,0,1,47
BRDA:250,1,2,0
BRDA:250,1,3,2
BRDA:250,2,4,1
BRDA:250,2,5,1
BRDA:251,0,0,0
BRDA:251,0,1,47
BRDA:251,1,2,-
BRDA:251,1,3,-
BRDA:252,0,0,1
BRDA:252,0,1,46
BRDA:252,1,2,0
BRDA:252,1,3,1
BRDA:253,0,0,0
BRDA:253,0,1,46
BRDA:253,1,2,-
BRDA:253,1,3,-
BRDA:254,0,0,0
BRDA:254,0,1,46
BRDA:254,1,2,-
BRDA:254,1,3,-
BRDA:257,0,0,1
BRDA:257,0,1,45
BRDA:257,1,2,0
BRDA:257,1,3,1
BRDA:258,0,0,2
BRDA:258,0,1,43
BRDA:258,1,2,0
BRDA:258,1,3,2
BRDA:259,0,0,1
BRDA:259,0,1,42
BRDA:259,1,2,0
BRDA:259,1,3,1
BRDA:260,0,0,1
BRDA:260,0,1,41
BRDA:260,1,2,0
BRDA:260,1,3,1
BRDA:261,0,0,0
BRDA:261,0,1,41
BRDA:261,1,2,-
BRDA:261,1,3,-
BRDA:262,0,0,0
BRDA:262,0,1,41
BRDA:262,1,2,-
BRDA:262,1,3,-
BRDA:263,0,0,0
BRDA:263,0,1,41
BRDA:263,1,2,-
BRDA:263,1,3,-
BRDA:264,0,0,0
BRDA:264,0,1,41
BRDA:264,1,2,-
BRDA:264,1,3,-
BRDA:265,0,0,1
BRDA:265,0,1,40
BRDA:265,1,2,0
BRDA:265,1,3,1
BRDA:266,0,0,2
BRDA:266,0,1,38
BRDA:266,1,2,0
BRDA:266,1,3,2
BRDA:266,2,4,1
BRDA:266,2,5,1
BRDA:269,0,0,2
BRDA:269,0,1,36
BRDA:269,1,2,0
BRDA:269,1,3,2
BRDA:270,0,0,2
BRDA:270,0,1,34
BRDA:270,1,2,0
BRDA:270,1,3,2
BRDA:270,2,4,1
BRDA:270,2,5,1
BRDA:271,0,0,0
BRDA:271,0,1,34
BRDA:271,1,2,-
BRDA:271,1,3,-
BRDA:271,2,4,-
BRDA:271,2,5,-
BRDA:274,0,0,1
BRDA:274,0,1,33
BRDA:275,0,0,0
BRDA:275,0,1,1
BRDA:279,0,0,2
BRDA:279,0,1,31
BRDA:280,0,0,0
BRDA:280,0,1,2
BRDA:283,0,0,1
BRDA:283,0,1,30
BRDA:284,0,0,0
BRDA:284,0,1,1
BRDA:290,0,0,1
BRDA:290,0,1,29
BRDA:291,0,0,0
BRDA:291,0,1,1
BRDA:295,0,0,2
BRDA:295,0,1,27
BRDA:296,0,0,0
BRDA:296,0,1,2
BRDA:299,0,0,1
BRDA:299,0,1,26
BRDA:300,0,0,0
BRDA:300,0,1,1
BRDA:306,0,0,2
BRDA:306,0,1,24
BRDA:307,0,0,0
BRDA:307,0,1,2
BRDA:308,0,0,6
BRDA:308,0,1,2
BRDA:311,0,0,1
BRDA:311,0,1,23
BRDA:311,1,2,0
BRDA:311,1,3,1
BRDA:312,0,0,7
BRDA:312,0,1,16
BRDA:312,1,2,0
BRDA:312,1,3,7
BRDA:312,2,4,5
BRDA:312,2,5,2
BRDA:315,0,0,2
BRDA:315,0,1,14
BRDA:316,0,0,0
BRDA:316,0,1,2
BRDA:320,0,0,1
BRDA:320,0,1,13
BRDA:321,0,0,0
BRDA:321,0,1,1
BRDA:325,0,0,1
BRDA:325,0,1,12
BRDA:326,0,0,0
BRDA:326,0,1,1
BRDA:329,0,0,1
BRDA:329,0,1,0
BRDA:332,0,0,1
BRDA:332,0,1,11
BRDA:333,0,0,0
BRDA:333,0,1,1
BRDA:337,0,0,6
BRDA:337,0,1,1
BRDA:341,0,0,6
BRDA:341,0,1,0
BRDA:346,0,0,3
BRDA:346,0,1,8
BRDA:347,0,0,0
BRDA:347,0,1,3
BRDA:350,0,0,1
BRDA:350,0,1,7
BRDA:351,0,0,0
BRDA:351,0,1,1
BRDA:355,0,0,3
BRDA:355,0,1,4
BRDA:356,0,0,0
BRDA:356,0,1,3
BRDA:360,0,0,3
BRDA:360,0,1,1
BRDA:361,0,0,0
BRDA:361,0,1,3
BRDA:388,0,0,2
BRDA:388,0,1,2
BRDA:389,0,0,0
BRDA:389,0,1,2
BRDA:390,0,0,0
BRDA:390,0,1,2
BRDA:391,0,0,2
BRDA:391,0,1,0
BRDA:392,0,0,-
BRDA:392,0,1,-
BRDA:393,0,0,-
BRDA:393,0,1,-
BRDA:394,0,0,-
BRDA:394,0,1,-
BRDA:395,0,0,-
BRDA:395,0,1,-
BRDA:396,0,0,-
BRDA:396,0,1,-
BRDA:397,0,0,-
BRDA:397,0,1,-
BRDA:402,0,0,2
BRDA:402,0,1,2
BRDA:403,0,0,0
BRDA:403,0,1,2
BRDA:404,0,0,0
BRDA:404,0,1,2
BRDA:405,0,0,2
BRDA:405,0,1,2
BRDA:406,0,0,0
BRDA:406,0,1,2
BRDA:407,0,0,0
BRDA:407,0,1,2
BRDA:408,0,0,0
BRDA:408,0,1,2
BRDA:409,0,0,0
BRDA:409,0,1,2
BRDA:410,0,0,0
BRDA:410,0,1,2
BRDA:411,0,0,0
BRDA:411,0,1,2
BRF:340
BRH:238
LF:344
LH:325
end_of_record
SF:/Users/artemzimin/Documents/LR1_3/DBMS_Lab_Project/DataStructures/Array.cpp
FN:63,_ZN5ArrayINSt3__112basic_stringIcNS0_11char_traitsIcEENS0_9allocatorIcEEEEE6resizeEm
FN:8,_ZN5ArrayINSt3__112basic_stringIcNS0_11char_traitsIcEENS0_9allocatorIcEEEEEC2Ev
FN:11,_ZN5ArrayINSt3__112basic_stringIcNS0_11char_traitsIcEENS0_9allocatorIcEEEEED2Ev
FN:16,_ZN5ArrayINSt3__112basic_stringIcNS0_11char_traitsIcEENS0_9allocatorIcEEEEEC2ERKS7_
FN:26,_ZN5ArrayINSt3__112basic_stringIcNS0_11char_traitsIcEENS0_9allocatorIcEEEEEaSERKS7_
FN:43,_ZN5ArrayINSt3__112basic_stringIcNS0_11char_traitsIcEENS0_9allocatorIcEEEEEC2EOS7_
FN:50,_ZN5ArrayINSt3__112basic_stringIcNS0_11char_traitsIcEENS0_9allocatorIcEEEEEaSEOS7_
FN:81,_ZN5ArrayINSt3__112basic_stringIcNS0_11char_traitsIcEENS0_9allocatorIcEEEEE9push_backERKS6_
FN:89,_ZN5ArrayINSt3__112basic_stringIcNS0_11char_traitsIcEENS0_9allocatorIcEEEEE6insertEmRKS6_
FN:103,_ZNK5ArrayINSt3__112basic_stringIcNS0_11char_traitsIcEENS0_9allocatorIcEEEEE3getEm
FN:109,_ZN5ArrayINSt3__112basic_stringIcNS0_11char_traitsIcEENS0_9allocatorIcEEEEE6removeEm
FN:119,_ZN5ArrayINSt3__112basic_stringIcNS0_11char_traitsIcEENS0_9allocatorIcEEEEE3setEmRKS6_
FN:125,_ZNK5ArrayINSt3__112basic_stringIcNS0_11char_traitsIcEENS0_9allocatorIcEEEEE4sizeEv
FN:130,_ZN5ArrayINSt3__112basic_stringIcNS0_11char_traitsIcEENS0_9allocatorIcEEEEE5clearEv
FN:139,_ZNK5ArrayINSt3__112basic_stringIcNS0_11char_traitsIcEENS0_9allocatorIcEEEEE9serializeEv
FN:148,_ZN5ArrayINSt3__112basic_stringIcNS0_11char_traitsIcEENS0_9allocatorIcEEEEE11deserializeERKS6_
FN:63,_ZN5ArrayIiE6resizeEm
FN:8,_ZN5ArrayIiEC2Ev
FN:11,_ZN5ArrayIiED2Ev
FN:16,_ZN5ArrayIiEC2ERKS0_
FN:26,_ZN5ArrayIiEaSERKS0_
FN:43,_ZN5ArrayIiEC2EOS0_
FN:50,_ZN5ArrayIiEaSEOS0_
FN:81,_ZN5ArrayIiE9push_backERKi
FN:89,_ZN5ArrayIiE6insertEmRKi
FN:103,_ZNK5ArrayIiE3getEm
FN:109,_ZN5ArrayIiE6removeEm
FN:119,_ZN5ArrayIiE3setEmRKi
FN:125,_ZNK5ArrayIiE4sizeEv
FN:130,_ZN5ArrayIiE5clearEv
FN:139,_ZNK5ArrayIiE9serializeEv
FN:148,_ZN5ArrayIiE11deserializeERKNSt3__112basic_stringIcNS1_11char_traitsIcEENS1_9allocatorIcEEEE
FNDA:18,_ZN5ArrayINSt3__112basic_stringIcNS0_11char_traitsIcEENS0_9allocatorIcEEEEE6resizeEm
FNDA:21,_ZN5ArrayINSt3__112basic_stringIcNS0_11char_traitsIcEENS0_9allocatorIcEEEEEC2Ev
FNDA:22,_ZN5ArrayINSt3__112basic_stringIcNS0_11char_traitsIcEENS0_9allocatorIcEEEEED2Ev
FNDA:1,_ZN5ArrayINSt3__112basic_stringIcNS0_11char_traitsIcEENS0_9allocatorIcEEEEEC2ERKS7_
FNDA:0,_ZN5ArrayINSt3__112basic_stringIcNS0_11char_traitsIcEENS0_9allocatorIcEEEEEaSERKS7_
FNDA:0,_ZN5ArrayINSt3__112basic_stringIcNS0_11char_traitsIcEENS0_9allocatorIcEEEEEC2EOS7_
FNDA:2,_ZN5ArrayINSt3__112basic_stringIcNS0_11char_traitsIcEENS0_9allocatorIcEEEEEaSEOS7_
FNDA:52,_ZN5ArrayINSt3__112basic_stringIcNS0_11char_traitsIcEENS0_9allocatorIcEEEEE9push_backERKS6_
FNDA:2,_ZN5ArrayINSt3__112basic_stringIcNS0_11char_traitsIcEENS0_9allocatorIcEEEEE6insertEmRKS6_
FNDA:48,_ZNK5ArrayINSt3__112basic_stringIcNS0_11char_traitsIcEENS0_9allocatorIcEEEEE3getEm
FNDA:1,_ZN5ArrayINSt3__112basic_stringIcNS0_11char_traitsIcEENS0_9allocatorIcEEEEE6removeEm
FNDA:2,_ZN5ArrayINSt3__112basic_stringIcNS0_11char_traitsIcEENS0_9allocatorIcEEEEE3setEmRKS6_
FNDA:25,_ZNK5ArrayINSt3__112basic_stringIcNS0_11char_traitsIcEENS0_9allocatorIcEEEEE4sizeEv
FNDA:4,_ZN5ArrayINSt3__112basic_stringIcNS0_11char_traitsIcEENS0_9allocatorIcEEEEE5clearEv
FNDA:3,_ZNK5ArrayINSt3__112basic_stringIcNS0_11char_traitsIcEENS0_9allocatorIcEEEEE9serializeEv
FNDA:3,_ZN5ArrayINSt3__112basic_stringIcNS0_11char_traitsIcEENS0_9allocatorIcEEEEE11deserializeERKS6_
FNDA:15,_ZN5ArrayIiE6resizeEm
FNDA:18,_ZN5ArrayIiEC2Ev
FNDA:19,_ZN5ArrayIiED2Ev
FNDA:0,_ZN5ArrayIiEC2ERKS0_
FNDA:1,_ZN5ArrayIiEaSERKS0_
FNDA:1,_ZN5ArrayIiEC2EOS0_
FNDA:1,_ZN5ArrayIiEaSEOS0_
FNDA:31,_ZN5ArrayIiE9push_backERKi
FNDA:3,_ZN5ArrayIiE6insertEmRKi
FNDA:15,_ZNK5ArrayIiE3getEm
FNDA:2,_ZN5ArrayIiE6removeEm
FNDA:3,_ZN5ArrayIiE3setEmRKi
FNDA:15,_ZNK5ArrayIiE4sizeEv
FNDA:2,_ZN5ArrayIiE5clearEv
FNDA:1,_ZNK5ArrayIiE9serializeEv
FNDA:1,_ZN5ArrayIiE11deserializeERKNSt3__112basic_stringIcNS1_11char_traitsIcEENS1_9allocatorIcEEEE
FNF:16
FNH:16
DA:8,39
DA:11,41
DA:12,41
DA:13,41
DA:16,1
DA:17,1
DA:18,1
DA:19,1
DA:20,1
DA:21,1
DA:22,1
DA:23,1
DA:26,1
DA:27,1
DA:28,1
DA:29,1
DA:30,1
DA:31,1
DA:32,1
DA:33,1
DA:34,1
DA:35,1
DA:36,1
DA:37,1
DA:38,1
DA:39,1
DA:43,1
DA:44,1
DA:45,1
DA:46,1
DA:47,1
DA:50,3
DA:51,3
DA:52,3
DA:53,3
DA:54,3
DA:55,3
DA:56,3
DA:57,3
DA:58,3
DA:59,3
DA:60,3
DA:63,33
DA:64,33
DA:65,33
DA:67,1
DA:68,1
DA:69,1
DA:70,1
DA:71,33
DA:72,33
DA:74,33
DA:75,0
DA:76,0
DA:77,33
DA:81,83
DA:82,83
DA:83,33
DA:84,33
DA:85,83
DA:86,83
DA:89,5
DA:90,5
DA:91,4
DA:92,0
DA:93,0
DA:95,7
DA:96,3
DA:97,3
DA:98,4
DA:99,4
DA:100,4
DA:103,63
DA:104,63
DA:105,59
DA:106,63
DA:109,3
DA:110,3
DA:112,5
DA:113,3
DA:114,3
DA:115,2
DA:116,2
DA:119,5
DA:120,5
DA:121,4
DA:122,4
DA:125,40
DA:126,40
DA:127,40
DA:130,6
DA:131,6
DA:132,6
DA:133,6
DA:134,6
DA:135,6
DA:139,4
DA:140,4
DA:141,12
DA:142,8
DA:143,8
DA:144,4
DA:145,4
DA:148,4
DA:149,4
DA:151,4
DA:152,4
DA:153,16
DA:154,12
DA:155,12
DA:156,4
BRDA:17,0,0,1
BRDA:17,0,1,0
BRDA:27,0,0,0
BRDA:27,0,1,1
BRDA:32,0,0,1
BRDA:32,0,1,0
BRDA:51,0,0,0
BRDA:51,0,1,3
BRDA:65,0,0,1
BRDA:65,0,1,32
BRDA:74,0,0,0
BRDA:74,0,1,33
BRDA:82,0,0,33
BRDA:82,0,1,50
BRDA:83,0,0,32
BRDA:83,0,1,1
BRDA:90,0,0,1
BRDA:90,0,1,4
BRDA:91,0,0,0
BRDA:91,0,1,4
BRDA:92,0,0,-
BRDA:92,0,1,-
BRDA:95,0,0,3
BRDA:95,0,1,4
BRDA:104,0,0,4
BRDA:104,0,1,59
BRDA:110,0,0,1
BRDA:110,0,1,2
BRDA:112,0,0,3
BRDA:112,0,1,2
BRDA:120,0,0,1
BRDA:120,0,1,4
BRDA:141,0,0,8
BRDA:141,0,1,4
BRDA:142,0,0,3
BRDA:142,0,1,5
BRDA:153,0,0,12
BRDA:153,0,1,4
BRF:38
BRH:30
LF:111
LH:107
end_of_record
SF:/Users/artemzimin/Documents/LR1_3/DBMS_Lab_Project/DataStructures/DoublyLinkedList.cpp
FN:8,_ZN16DoublyLinkedListINSt3__112basic_stringIcNS0_11char_traitsIcEENS0_9allocatorIcEEEEE4NodeC2ES6_
FN:10,_ZN16DoublyLinkedListINSt3__112basic_stringIcNS0_11char_traitsIcEENS0_9allocatorIcEEEEEC2Ev
FN:11,_ZN16DoublyLinkedListINSt3__112basic_stringIcNS0_11char_traitsIcEENS0_9allocatorIcEEEEED2Ev
FN:12,_ZN16DoublyLinkedListINSt3__112basic_stringIcNS0_11char_traitsIcEENS0_9allocatorIcEEEEEC2EOS7_
FN:13,_ZN16DoublyLinkedListINSt3__112basic_stringIcNS0_11char_traitsIcEENS0_9allocatorIcEEEEEaSEOS7_
FN:14,_ZN16DoublyLinkedListINSt3__112basic_stringIcNS0_11char_traitsIcEENS0_9allocatorIcEEEEE10push_frontERKS6_
FN:43,_ZN16DoublyLinkedListINSt3__112basic_stringIcNS0_11char_traitsIcEENS0_9allocatorIcEEEEE9push_backERKS6_
FN:55,_ZN16DoublyLinkedListINSt3__112basic_stringIcNS0_11char_traitsIcEENS0_9allocatorIcEEEEE9pop_frontEv
FN:63,_ZN16DoublyLinkedListINSt3__112basic_stringIcNS0_11char_traitsIcEENS0_9allocatorIcEEEEE8pop_backEv
FN:31,_ZN16DoublyLinkedListINSt3__112basic_stringIcNS0_11char_traitsIcEENS0_9allocatorIcEEEEE12remove_valueERKS6_
FN:24,_ZNK16DoublyLinkedListINSt3__112basic_stringIcNS0_11char_traitsIcEENS0_9allocatorIcEEEEE4findERKS6_
FN:86,_ZN16DoublyLinkedListINSt3__112basic_stringIcNS0_11char_traitsIcEENS0_9allocatorIcEEEEE12insert_afterERKS6_S9_
FN:147,_ZN16DoublyLinkedListINSt3__112basic_stringIcNS0_11char_traitsIcEENS0_9allocatorIcEEEEE13insert_beforeERKS6_S9_
FN:106,_ZN16DoublyLinkedListINSt3__112basic_stringIcNS0_11char_traitsIcEENS0_9allocatorIcEEEEE12remove_afterERKS6_
FN:126,_ZN16DoublyLinkedListINSt3__112basic_stringIcNS0_11char_traitsIcEENS0_9allocatorIcEEEEE13remove_beforeERKS6_
FN:73,_ZNK16DoublyLinkedListINSt3__112basic_stringIcNS0_11char_traitsIcEENS0_9allocatorIcEEEEE4sizeEv
FN:74,_ZNK16DoublyLinkedListINSt3__112basic_stringIcNS0_11char_traitsIcEENS0_9allocatorIcEEEEE9serializeEv
FN:79,_ZN16DoublyLinkedListINSt3__112basic_stringIcNS0_11char_traitsIcEENS0_9allocatorIcEEEEE11deserializeERKS6_
FNDA:44,_ZN16DoublyLinkedListINSt3__112basic_stringIcNS0_11char_traitsIcEENS0_9allocatorIcEEEEE4NodeC2ES6_
FNDA:21,_ZN16DoublyLinkedListINSt3__112basic_stringIcNS0_11char_traitsIcEENS0_9allocatorIcEEEEEC2Ev
FNDA:21,_ZN16DoublyLinkedListINSt3__112basic_stringIcNS0_11char_traitsIcEENS0_9allocatorIcEEEEED2Ev
FNDA:0,_ZN16DoublyLinkedListINSt3__112basic_stringIcNS0_11char_traitsIcEENS0_9allocatorIcEEEEEC2EOS7_
FNDA:0,_ZN16DoublyLinkedListINSt3__112basic_stringIcNS0_11char_traitsIcEENS0_9allocatorIcEEEEEaSEOS7_
FNDA:5,_ZN16DoublyLinkedListINSt3__112basic_stringIcNS0_11char_traitsIcEENS0_9allocatorIcEEEEE10push_frontERKS6_
FNDA:36,_ZN16DoublyLinkedListINSt3__112basic_stringIcNS0_11char_traitsIcEENS0_9allocatorIcEEEEE9push_backERKS6_
FNDA:4,_ZN16DoublyLinkedListINSt3__112basic_stringIcNS0_11char_traitsIcEENS0_9allocatorIcEEEEE9pop_frontEv
FNDA:4,_ZN16DoublyLinkedListINSt3__112basic_stringIcNS0_11char_traitsIcEENS0_9allocatorIcEEEEE8pop_backEv
FNDA:4,_ZN16DoublyLinkedListINSt3__112basic_stringIcNS0_11char_traitsIcEENS0_9allocatorIcEEEEE12remove_valueERKS6_
FNDA:6,_ZNK16DoublyLinkedListINSt3__112basic_stringIcNS0_11char_traitsIcEENS0_9allocatorIcEEEEE4findERKS6_
FNDA:3,_ZN16DoublyLinkedListINSt3__112basic_stringIcNS0_11char_traitsIcEENS0_9allocatorIcEEEEE12insert_afterERKS6_S9_
FNDA:2,_ZN16DoublyLinkedListINSt3__112basic_stringIcNS0_11char_traitsIcEENS0_9allocatorIcEEEEE13insert_beforeERKS6_S9_
FNDA:2,_ZN16DoublyLinkedListINSt3__112basic_stringIcNS0_11char_traitsIcEENS0_9allocatorIcEEEEE12remove_afterERKS6_
FNDA:2,_ZN16DoublyLinkedListINSt3__112basic_stringIcNS0_11char_traitsIcEENS0_9allocatorIcEEEEE13remove_beforeERKS6_
FNDA:17,_ZNK16DoublyLinkedListINSt3__112basic_stringIcNS0_11char_traitsIcEENS0_9allocatorIcEEEEE4sizeEv
FNDA:18,_ZNK16DoublyLinkedListINSt3__112basic_stringIcNS0_11char_traitsIcEENS0_9allocatorIcEEEEE9serializeEv
FNDA:1,_ZN16DoublyLinkedListINSt3__112basic_stringIcNS0_11char_traitsIcEENS0_9allocatorIcEEEEE11deserializeERKS6_
FNF:18
FNH:16
DA:8,44
DA:10,21
DA:11,21
DA:12,0
DA:13,0
DA:14,5
DA:15,5
DA:16,5
DA:17,3
DA:18,3
DA:19,3
DA:20,5
DA:21,5
DA:22,5
DA:24,6
DA:25,10
DA:26,7
DA:27,7
DA:28,3
DA:29,6
DA:31,4
DA:32,4
DA:33,6
DA:34,2
DA:35,2
DA:36,4
DA:37,3
DA:38,2
DA:39,3
DA:40,3
DA:41,3
DA:42,3
DA:43,36
DA:44,36
DA:45,36
DA:46,19
DA:47,19
DA:48,19
DA:49,19
DA:50,17
DA:51,17
DA:52,17
DA:53,36
DA:54,36
DA:55,4
DA:56,4
DA:57,3
DA:58,3
DA:59,3
DA:60,3
DA:61,3
DA:62,4
DA:63,4
DA:64,4
DA:65,3
DA:66,3
DA:67,3
DA:68,3
DA:69,3
DA:70,3
DA:71,3
DA:72,4
DA:73,17
DA:74,18
DA:75,18
DA:76,49
DA:77,18
DA:78,18
DA:79,1
DA:80,1
DA:81,1
DA:82,1
DA:83,4
DA:84,1
DA:86,3
DA:87,3
DA:88,5
DA:89,2
DA:90,2
DA:91,3
DA:93,2
DA:94,2
DA:95,2
DA:96,2
DA:97,2
DA:98,2
DA:99,0
DA:100,0
DA:101,2
DA:102,2
DA:103,2
DA:106,2
DA:107,2
DA:108,3
DA:109,1
DA:110,1
DA:112,2
DA:114,1
DA:116,1
DA:117,1
DA:118,1
DA:119,1
DA:120,0
DA:121,0
DA:122,1
DA:123,1
DA:126,2
DA:127,2
DA:128,5
DA:129,3
DA:130,3
DA:132,2
DA:134,1
DA:136,1
DA:137,1
DA:138,1
DA:139,1
DA:140,0
DA:141,0
DA:142,0
DA:143,1
DA:144,1
DA:147,2
DA:148,2
DA:149,4
DA:150,2
DA:151,2
DA:152,2
DA:154,1
DA:155,0
DA:156,0
DA:157,0
DA:159,1
DA:160,1
DA:161,1
DA:162,1
DA:163,1
DA:164,1
DA:165,1
BRDA:16,0,0,3
BRDA:16,0,1,2
BRDA:25,0,0,7
BRDA:25,0,1,3
BRDA:26,0,0,3
BRDA:26,0,1,4
BRDA:33,0,0,5
BRDA:33,0,1,1
BRDA:33,1,2,2
BRDA:33,1,3,3
BRDA:36,0,0,1
BRDA:36,0,1,3
BRDA:37,0,0,1
BRDA:37,0,1,2
BRDA:39,0,0,0
BRDA:39,0,1,3
BRDA:45,0,0,19
BRDA:45,0,1,17
BRDA:56,0,0,1
BRDA:56,0,1,3
BRDA:59,0,0,3
BRDA:59,0,1,0
BRDA:64,0,0,1
BRDA:64,0,1,3
BRDA:66,0,0,3
BRDA:66,0,1,0
BRDA:76,0,0,31
BRDA:76,0,1,18
BRDA:76,1,2,14
BRDA:76,1,3,17
BRDA:83,0,0,3
BRDA:83,0,1,1
BRDA:88,0,0,4
BRDA:88,0,1,1
BRDA:88,1,2,2
BRDA:88,1,3,2
BRDA:91,0,0,1
BRDA:91,0,1,2
BRDA:95,0,0,2
BRDA:95,0,1,0
BRDA:108,0,0,2
BRDA:108,0,1,1
BRDA:108,1,2,1
BRDA:108,1,3,1
BRDA:112,0,0,1
BRDA:112,0,1,1
BRDA:112,1,2,0
BRDA:112,1,3,1
BRDA:117,0,0,1
BRDA:117,0,1,0
BRDA:128,0,0,4
BRDA:128,0,1,1
BRDA:128,1,2,3
BRDA:128,1,3,1
BRDA:132,0,0,1
BRDA:132,0,1,1
BRDA:132,1,2,0
BRDA:132,1,3,1
BRDA:136,0,0,1
BRDA:136,0,1,0
BRDA:149,0,0,3
BRDA:149,0,1,1
BRDA:149,1,2,2
BRDA:149,1,3,1
BRDA:152,0,0,1
BRDA:152,0,1,1
BRDA:154,0,0,0
BRDA:154,0,1,1
BRF:68
BRH:59
LF:139
LH:127
end_of_record
SF:/Users/artemzimin/Documents/LR1_3/DBMS_Lab_Project/DataStructures/FullBinaryTree.cpp
FN:10,_ZN14FullBinaryTreeINSt3__112basic_stringIcNS0_11char_traitsIcEENS0_9allocatorIcEEEEE4NodeC2ES6_
FN:37,_ZNK14FullBinaryTreeINSt3__112basic_stringIcNS0_11char_traitsIcEENS0_9allocatorIcEEEEE18serializeRecursiveEPKNS7_4NodeEiRNS0_18basic_stringstreamIcS3_S5_EE
FN:115,_ZNK14FullBinaryTreeINSt3__112basic_stringIcNS0_11char_traitsIcEENS0_9allocatorIcEEEEE15isFullRecursiveEPKNS7_4NodeE
FN:122,_ZNK14FullBinaryTreeINSt3__112basic_stringIcNS0_11char_traitsIcEENS0_9allocatorIcEEEEE13findRecursiveEPKNS7_4NodeERKS6_
FN:14,_ZN14FullBinaryTreeINSt3__112basic_stringIcNS0_11char_traitsIcEENS0_9allocatorIcEEEEEC2Ev
FN:15,_ZN14FullBinaryTreeINSt3__112basic_stringIcNS0_11char_traitsIcEENS0_9allocatorIcEEEEED2Ev
FN:16,_ZN14FullBinaryTreeINSt3__112basic_stringIcNS0_11char_traitsIcEENS0_9allocatorIcEEEEEC2EOS7_
FN:17,_ZN14FullBinaryTreeINSt3__112basic_stringIcNS0_11char_traitsIcEENS0_9allocatorIcEEEEEaSEOS7_
FN:21,_ZN14FullBinaryTreeINSt3__112basic_stringIcNS0_11char_traitsIcEENS0_9allocatorIcEEEEE6insertERKS6_
FN:31,_ZNK14FullBinaryTreeINSt3__112basic_stringIcNS0_11char_traitsIcEENS0_9allocatorIcEEEEE4findERKS6_
FN:32,_ZNK14FullBinaryTreeINSt3__112basic_stringIcNS0_11char_traitsIcEENS0_9allocatorIcEEEEE6isFullEv
FN:49,_ZNK14FullBinaryTreeINSt3__112basic_stringIcNS0_11char_traitsIcEENS0_9allocatorIcEEEEE9serializeEv
FN:63,_ZN14FullBinaryTreeINSt3__112basic_stringIcNS0_11char_traitsIcEENS0_9allocatorIcEEEEE11deserializeERKS6_
FNDA:28,_ZN14FullBinaryTreeINSt3__112basic_stringIcNS0_11char_traitsIcEENS0_9allocatorIcEEEEE4NodeC2ES6_
FNDA:33,_ZNK14FullBinaryTreeINSt3__112basic_stringIcNS0_11char_traitsIcEENS0_9allocatorIcEEEEE18serializeRecursiveEPKNS7_4NodeEiRNS0_18basic_stringstreamIcS3_S5_EE
FNDA:15,_ZNK14FullBinaryTreeINSt3__112basic_stringIcNS0_11char_traitsIcEENS0_9allocatorIcEEEEE15isFullRecursiveEPKNS7_4NodeE
FNDA:94,_ZNK14FullBinaryTreeINSt3__112basic_stringIcNS0_11char_traitsIcEENS0_9allocatorIcEEEEE13findRecursiveEPKNS7_4NodeERKS6_
FNDA:10,_ZN14FullBinaryTreeINSt3__112basic_stringIcNS0_11char_traitsIcEENS0_9allocatorIcEEEEEC2Ev
FNDA:11,_ZN14FullBinaryTreeINSt3__112basic_stringIcNS0_11char_traitsIcEENS0_9allocatorIcEEEEED2Ev
FNDA:1,_ZN14FullBinaryTreeINSt3__112basic_stringIcNS0_11char_traitsIcEENS0_9allocatorIcEEEEEC2EOS7_
FNDA:1,_ZN14FullBinaryTreeINSt3__112basic_stringIcNS0_11char_traitsIcEENS0_9allocatorIcEEEEEaSEOS7_
FNDA:21,_ZN14FullBinaryTreeINSt3__112basic_stringIcNS0_11char_traitsIcEENS0_9allocatorIcEEEEE6insertERKS6_
FNDA:21,_ZNK14FullBinaryTreeINSt3__112basic_stringIcNS0_11char_traitsIcEENS0_9allocatorIcEEEEE4findERKS6_
FNDA:6,_ZNK14FullBinaryTreeINSt3__112basic_stringIcNS0_11char_traitsIcEENS0_9allocatorIcEEEEE6isFullEv
FNDA:5,_ZNK14FullBinaryTreeINSt3__112basic_stringIcNS0_11char_traitsIcEENS0_9allocatorIcEEEEE9serializeEv
FNDA:2,_ZN14FullBinaryTreeINSt3__112basic_stringIcNS0_11char_traitsIcEENS0_9allocatorIcEEEEE11deserializeERKS6_
FNF:13
FNH:13
DA:10,28
DA:14,10
DA:15,11
DA:16,1
DA:17,1
DA:21,21
DA:22,21
DA:23,14
DA:24,21
DA:25,21
DA:26,21
DA:27,12
DA:28,12
DA:29,14
DA:31,21
DA:32,6
DA:37,33
DA:38,33
DA:41,14
DA:44,14
DA:45,14
DA:46,14
DA:49,5
DA:50,5
DA:51,5
DA:52,5
DA:54,5
DA:55,2
DA:56,2
DA:57,5
DA:58,5
DA:63,2
DA:64,2
DA:65,2
DA:67,1
DA:68,1
DA:69,1
DA:70,8
DA:71,7
DA:72,7
DA:74,1
DA:77,1
DA:80,1
DA:81,1
DA:82,1
DA:83,1
DA:84,1
DA:86,7
DA:87,6
DA:88,6
DA:90,6
DA:91,6
DA:92,6
DA:93,6
DA:96,6
DA:99,6
DA:100,3
DA:101,3
DA:102,3
DA:103,3
DA:106,6
DA:107,2
DA:108,2
DA:109,6
DA:110,6
DA:111,1
DA:115,15
DA:116,15
DA:117,14
DA:118,7
DA:119,2
DA:120,7
DA:122,94
DA:123,94
DA:124,56
DA:125,41
DA:126,56
BRDA:22,0,0,7
BRDA:22,0,1,14
BRDA:24,0,0,21
BRDA:24,0,1,0
BRDA:26,0,0,9
BRDA:26,0,1,12
BRDA:27,0,0,5
BRDA:27,0,1,7
BRDA:38,0,0,19
BRDA:38,0,1,14
BRDA:54,0,0,2
BRDA:54,0,1,3
BRDA:65,0,0,1
BRDA:65,0,1,1
BRDA:70,0,0,7
BRDA:70,0,1,1
BRDA:74,0,0,0
BRDA:74,0,1,1
BRDA:86,0,0,6
BRDA:86,0,1,1
BRDA:99,0,0,3
BRDA:99,0,1,3
BRDA:106,0,0,2
BRDA:106,0,1,4
BRDA:109,0,0,3
BRDA:109,0,1,3
BRDA:116,0,0,1
BRDA:116,0,1,14
BRDA:117,0,0,7
BRDA:117,0,1,7
BRDA:117,1,2,7
BRDA:117,1,3,0
BRDA:118,0,0,7
BRDA:118,0,1,0
BRDA:118,1,2,5
BRDA:118,1,3,2
BRDA:118,2,4,4
BRDA:118,2,5,1
BRDA:118,3,6,4
BRDA:118,3,7,0
BRDA:123,0,0,38
BRDA:123,0,1,56
BRDA:124,0,0,15
BRDA:124,0,1,41
BRDA:125,0,0,9
BRDA:125,0,1,32
BRDA:125,1,2,6
BRDA:125,1,3,26
BRF:48
BRH:43
LF:77
LH:77
end_of_record
SF:/Users/artemzimin/Documents/LR1_3/DBMS_Lab_Project/DataStructures/HashTableChaining.cpp
FN:5,_ZNK17HashTableChaining10manualHashERKNSt3__112basic_stringIcNS0_11char_traitsIcEENS0_9allocatorIcEEEE
FN:13,_ZN17HashTableChainingC2Em
FN:17,_ZN17HashTableChaining3putERKNSt3__112basic_stringIcNS0_11char_traitsIcEENS0_9allocatorIcEEEES8_
FN:28,_ZNK17HashTableChaining3getERKNSt3__112basic_stringIcNS0_11char_traitsIcEENS0_9allocatorIcEEEE
FN:38,_ZN17HashTableChaining6removeERKNSt3__112basic_stringIcNS0_11char_traitsIcEENS0_9allocatorIcEEEE
FN:51,_ZNK17HashTableChaining9serializeEv
FN:62,_ZN17HashTableChaining11deserializeERKNSt3__112basic_stringIcNS0_11char_traitsIcEENS0_9allocatorIcEEEE
FNDA:27,_ZNK17HashTableChaining10manualHashERKNSt3__112basic_stringIcNS0_11char_traitsIcEENS0_9allocatorIcEEEE
FNDA:10,_ZN17HashTableChainingC2Em
FNDA:12,_ZN17HashTableChaining3putERKNSt3__112basic_stringIcNS0_11char_traitsIcEENS0_9allocatorIcEEEES8_
FNDA:12,_ZNK17HashTableChaining3getERKNSt3__112basic_stringIcNS0_11char_traitsIcEENS0_9allocatorIcEEEE
FNDA:3,_ZN17HashTableChaining6removeERKNSt3__112basic_stringIcNS0_11char_traitsIcEENS0_9allocatorIcEEEE
FNDA:2,_ZNK17HashTableChaining9serializeEv
FNDA:2,_ZN17HashTableChaining11deserializeERKNSt3__112basic_stringIcNS0_11char_traitsIcEENS0_9allocatorIcEEEE
FNF:7
FNH:7
DA:5,27
DA:6,27
DA:7,185
DA:8,185
DA:9,185
DA:10,27
DA:11,27
DA:13,10
DA:14,10
DA:15,10
DA:17,12
DA:18,12
DA:19,12
DA:20,1
DA:21,1
DA:22,1
DA:23,1
DA:24,1
DA:25,11
DA:26,11
DA:28,12
DA:29,12
DA:30,12
DA:31,8
DA:32,8
DA:33,8
DA:34,8
DA:35,4
DA:36,12
DA:38,3
DA:39,3
DA:40,3
DA:41,3
DA:42,2
DA:43,2
DA:44,2
DA:45,2
DA:46,2
DA:47,3
DA:51,2
DA:52,2
DA:53,32
DA:54,32
DA:56,2
DA:57,2
DA:58,32
DA:59,2
DA:60,2
DA:62,2
DA:63,2
DA:64,2
DA:65,2
DA:66,2
DA:68,4
DA:69,2
DA:70,2
DA:71,2
DA:72,2
DA:73,2
DA:74,2
DA:75,2
BRDA:7,0,0,185
BRDA:7,0,1,27
BRDA:19,0,0,1
BRDA:19,0,1,11
BRDA:20,0,0,1
BRDA:20,0,1,0
BRDA:30,0,0,8
BRDA:30,0,1,4
BRDA:31,0,0,8
BRDA:31,0,1,0
BRDA:41,0,0,2
BRDA:41,0,1,1
BRDA:42,0,0,2
BRDA:42,0,1,0
BRDA:53,0,0,32
BRDA:53,0,1,2
BRDA:54,0,0,2
BRDA:54,0,1,32
BRDA:68,0,0,2
BRDA:68,0,1,2
BRDA:70,0,0,0
BRDA:70,0,1,2
BRF:22
BRH:18
LF:61
LH:61
end_of_record
SF:/Users/artemzimin/Documents/LR1_3/DBMS_Lab_Project/DataStructures/HashTableOpenAddr.cpp
FN:6,_ZNK17HashTableOpenAddr10manualHashERKNSt3__112basic_stringIcNS0_11char_traitsIcEENS0_9allocatorIcEEEE
FN:16,_ZN17HashTableOpenAddrC2Em
FN:20,_ZN17HashTableOpenAddrD2Ev
FN:25,_ZN17HashTableOpenAddr6rehashEv
FN:43,_ZN17HashTableOpenAddr3putERKNSt3__112basic_stringIcNS0_11char_traitsIcEENS0_9allocatorIcEEEES8_
FN:77,_ZNK17HashTableOpenAddr3getERKNSt3__112basic_stringIcNS0_11char_traitsIcEENS0_9allocatorIcEEEE
FN:93,_ZNK17HashTableOpenAddr3getERKNSt3__112basic_stringIcNS0_11char_traitsIcEENS0_9allocatorIcEEEERS6_
FN:112,_ZN17HashTableOpenAddr6removeERKNSt3__112basic_stringIcNS0_11char_traitsIcEENS0_9allocatorIcEEEE
FN:128,_ZN17HashTableOpenAddr5clearEv
FN:134,_ZNK17HashTableOpenAddr9serializeEv
FN:145,_ZN17HashTableOpenAddr11deserializeERKNSt3__112basic_stringIcNS0_11char_traitsIcEENS0_9allocatorIcEEEE
FNDA:118,_ZNK17HashTableOpenAddr10manualHashERKNSt3__112basic_stringIcNS0_11char_traitsIcEENS0_9allocatorIcEEEE
FNDA:14,_ZN17HashTableOpenAddrC2Em
FNDA:14,_ZN17HashTableOpenAddrD2Ev
FNDA:1,_ZN17HashTableOpenAddr6rehashEv
FNDA:63,_ZN17HashTableOpenAddr3putERKNSt3__112basic_stringIcNS0_11char_traitsIcEENS0_9allocatorIcEEEES8_
FNDA:31,_ZNK17HashTableOpenAddr3getERKNSt3__112basic_stringIcNS0_11char_traitsIcEENS0_9allocatorIcEEEE
FNDA:21,_ZNK17HashTableOpenAddr3getERKNSt3__112basic_stringIcNS0_11char_traitsIcEENS0_9allocatorIcEEEERS6_
FNDA:3,_ZN17HashTableOpenAddr6removeERKNSt3__112basic_stringIcNS0_11char_traitsIcEENS0_9allocatorIcEEEE
FNDA:2,_ZN17HashTableOpenAddr5clearEv
FNDA:1,_ZNK17HashTableOpenAddr9serializeEv
FNDA:1,_ZN17HashTableOpenAddr11deserializeERKNSt3__112basic_stringIcNS0_11char_traitsIcEENS0_9allocatorIcEEEE
FNF:11
FNH:11
DA:6,118
DA:7,118
DA:8,396
DA:9,396
DA:10,396
DA:11,118
DA:12,118
DA:16,14
DA:17,14
DA:18,14
DA:20,14
DA:21,14
DA:22,14
DA:25,1
DA:26,1
DA:27,1
DA:29,1
DA:30,1
DA:31,1
DA:33,17
DA:34,16
DA:36,10
DA:37,10
DA:38,16
DA:39,1
DA:40,1
DA:43,63
DA:44,63
DA:45,1
DA:46,1
DA:48,63
DA:49,63
DA:51,64
DA:52,64
DA:54,12
DA:55,12
DA:56,12
DA:58,52
DA:59,1
DA:60,1
DA:62,52
DA:64,51
DA:65,51
DA:66,51
DA:67,51
DA:68,51
DA:69,51
DA:70,51
DA:72,1
DA:73,1
DA:74,63
DA:77,31
DA:78,31
DA:80,33
DA:81,33
DA:82,4
DA:83,4
DA:84,29
DA:85,27
DA:86,27
DA:87,2
DA:88,2
DA:90,4
DA:91,31
DA:93,21
DA:94,21
DA:96,21
DA:97,21
DA:98,9
DA:99,9
DA:100,12
DA:101,12
DA:102,12
DA:103,12
DA:104,0
DA:105,0
DA:107,0
DA:108,21
DA:112,3
DA:113,3
DA:115,3
DA:116,3
DA:117,0
DA:118,0
DA:119,3
DA:120,3
DA:121,3
DA:122,3
DA:123,3
DA:124,0
DA:125,0
DA:126,3
DA:128,2
DA:129,2
DA:130,2
DA:131,2
DA:132,2
DA:134,1
DA:135,1
DA:136,17
DA:137,16
DA:139,2
DA:140,2
DA:141,16
DA:142,1
DA:143,1
DA:145,1
DA:146,1
DA:147,1
DA:148,1
DA:150,3
DA:151,2
DA:152,2
DA:153,2
DA:154,2
DA:155,2
DA:156,2
DA:157,1
BRDA:8,0,0,396
BRDA:8,0,1,118
BRDA:33,0,0,16
BRDA:33,0,1,1
BRDA:34,0,0,10
BRDA:34,0,1,6
BRDA:44,0,0,1
BRDA:44,0,1,62
BRDA:51,0,0,64
BRDA:51,0,1,0
BRDA:52,0,0,12
BRDA:52,0,1,52
BRDA:52,1,2,12
BRDA:52,1,3,0
BRDA:58,0,0,1
BRDA:58,0,1,51
BRDA:58,1,2,1
BRDA:58,1,3,0
BRDA:62,0,0,51
BRDA:62,0,1,1
BRDA:64,0,0,1
BRDA:64,0,1,50
BRDA:80,0,0,33
BRDA:80,0,1,0
BRDA:81,0,0,4
BRDA:81,0,1,29
BRDA:84,0,0,27
BRDA:84,0,1,2
BRDA:84,1,2,27
BRDA:84,1,3,0
BRDA:96,0,0,21
BRDA:96,0,1,0
BRDA:97,0,0,9
BRDA:97,0,1,12
BRDA:100,0,0,12
BRDA:100,0,1,0
BRDA:100,1,2,12
BRDA:100,1,3,0
BRDA:115,0,0,3
BRDA:115,0,1,0
BRDA:116,0,0,0
BRDA:116,0,1,3
BRDA:119,0,0,3
BRDA:119,0,1,0
BRDA:119,1,2,3
BRDA:119,1,3,0
BRDA:136,0,0,16
BRDA:136,0,1,1
BRDA:137,0,0,2
BRDA:137,0,1,14
BRDA:150,0,0,2
BRDA:150,0,1,1
BRDA:152,0,0,0
BRDA:152,0,1,2
BRF:54
BRH:41
LF:118
LH:111
end_of_record
SF:/Users/artemzimin/Documents/LR1_3/DBMS_Lab_Project/DataStructures/LFUCache.cpp
FN:4,_ZN8LFUCacheC2Ei
FN:6,_ZN8LFUCache15updateFrequencyERKNSt3__112basic_stringIcNS0_11char_traitsIcEENS0_9allocatorIcEEEE
FN:28,_ZN8LFUCache5evictEv
FN:40,_ZN8LFUCache12internal_setERKNSt3__112basic_stringIcNS0_11char_traitsIcEENS0_9allocatorIcEEEES8_i
FN:51,_ZN8LFUCache3getERKNSt3__112basic_stringIcNS0_11char_traitsIcEENS0_9allocatorIcEEEE
FN:60,_ZN8LFUCache3setERKNSt3__112basic_stringIcNS0_11char_traitsIcEENS0_9allocatorIcEEEES8_
FN:84,_ZNK8LFUCache9serializeEv
FN:98,_ZN8LFUCache11deserializeERKNSt3__112basic_stringIcNS0_11char_traitsIcEENS0_9allocatorIcEEEE
FNDA:13,_ZN8LFUCacheC2Ei
FNDA:23,_ZN8LFUCache15updateFrequencyERKNSt3__112basic_stringIcNS0_11char_traitsIcEENS0_9allocatorIcEEEE
FNDA:5,_ZN8LFUCache5evictEv
FNDA:2,_ZN8LFUCache12internal_setERKNSt3__112basic_stringIcNS0_11char_traitsIcEENS0_9allocatorIcEEEES8_i
FNDA:28,_ZN8LFUCache3getERKNSt3__112basic_stringIcNS0_11char_traitsIcEENS0_9allocatorIcEEEE
FNDA:22,_ZN8LFUCache3setERKNSt3__112basic_stringIcNS0_11char_traitsIcEENS0_9allocatorIcEEEES8_
FNDA:1,_ZNK8LFUCache9serializeEv
FNDA:1,_ZN8LFUCache11deserializeERKNSt3__112basic_stringIcNS0_11char_traitsIcEENS0_9allocatorIcEEEE
FNF:8
FNH:8
DA:4,13
DA:6,23
DA:7,23
DA:8,23
DA:11,23
DA:15,23
DA:16,12
DA:17,12
DA:20,23
DA:21,23
DA:24,23
DA:25,23
DA:26,23
DA:28,5
DA:29,5
DA:32,5
DA:33,5
DA:36,5
DA:37,5
DA:38,5
DA:40,2
DA:41,2
DA:42,2
DA:43,2
DA:45,2
DA:46,2
DA:47,2
DA:48,2
DA:49,2
DA:51,28
DA:52,28
DA:53,6
DA:54,6
DA:56,22
DA:57,22
DA:58,28
DA:60,22
DA:61,22
DA:63,21
DA:65,1
DA:66,1
DA:67,20
DA:69,20
DA:71,5
DA:72,5
DA:73,5
DA:76,20
DA:77,20
DA:78,20
DA:79,20
DA:80,20
DA:81,20
DA:82,21
DA:84,1
DA:85,1
DA:87,1
DA:89,2
DA:90,2
DA:91,2
DA:92,2
DA:93,2
DA:94,2
DA:95,1
DA:96,1
DA:98,1
DA:100,1
DA:101,1
DA:102,1
DA:103,1
DA:104,1
DA:105,1
DA:107,1
DA:109,1
DA:112,1
DA:113,1
DA:116,1
DA:117,1
DA:118,3
DA:119,2
DA:120,2
DA:121,1
BRDA:15,0,0,17
BRDA:15,0,1,6
BRDA:15,1,2,12
BRDA:15,1,3,5
BRDA:29,0,0,0
BRDA:29,0,1,5
BRDA:45,0,0,1
BRDA:45,0,1,1
BRDA:45,1,2,1
BRDA:45,1,3,0
BRDA:52,0,0,6
BRDA:52,0,1,22
BRDA:61,0,0,1
BRDA:61,0,1,21
BRDA:63,0,0,1
BRDA:63,0,1,20
BRDA:69,0,0,5
BRDA:69,0,1,15
BRDA:89,0,0,2
BRDA:89,0,1,1
BRDA:107,0,0,0
BRDA:107,0,1,1
BRDA:113,0,0,0
BRDA:113,0,1,1
BRDA:118,0,0,2
BRDA:118,0,1,1
BRF:26
BRH:22
LF:81
LH:81
end_of_record
SF:/Users/artemzimin/Documents/LR1_3/DBMS_Lab_Project/DataStructures/LFUCache.h
FN:43,_ZN8LFUCacheC2EOS_
FN:44,_ZN8LFUCacheaSEOS_
FNDA:1,_ZN8LFUCacheC2EOS_
FNDA:2,_ZN8LFUCacheaSEOS_
FNF:2
FNH:2
DA:43,1
DA:44,2
BRF:0
BRH:0
LF:2
LH:2
end_of_record
SF:/Users/artemzimin/Documents/LR1_3/DBMS_Lab_Project/DataStructures/Queue.cpp
FN:16,_ZN5QueueINSt3__112basic_stringIcNS0_11char_traitsIcEENS0_9allocatorIcEEEEEC2Ev
FN:19,_ZN5QueueINSt3__112basic_stringIcNS0_11char_traitsIcEENS0_9allocatorIcEEEEED2Ev
FN:22,_ZN5QueueINSt3__112basic_stringIcNS0_11char_traitsIcEENS0_9allocatorIcEEEEEC2EOS7_
FN:25,_ZN5QueueINSt3__112basic_stringIcNS0_11char_traitsIcEENS0_9allocatorIcEEEEEaSEOS7_
FN:30,_ZN5QueueINSt3__112basic_stringIcNS0_11char_traitsIcEENS0_9allocatorIcEEEEE4pushERKS6_
FN:45,_ZN5QueueINSt3__112basic_stringIcNS0_11char_traitsIcEENS0_9allocatorIcEEEEE3popEv
FN:62,_ZNK5QueueINSt3__112basic_stringIcNS0_11char_traitsIcEENS0_9allocatorIcEEEEE5emptyEv
FN:67,_ZNK5QueueINSt3__112basic_stringIcNS0_11char_traitsIcEENS0_9allocatorIcEEEEE9serializeEv
FN:78,_ZN5QueueINSt3__112basic_stringIcNS0_11char_traitsIcEENS0_9allocatorIcEEEEE11deserializeERKS6_
FN:11,_ZN5QueueINSt3__112basic_stringIcNS0_11char_traitsIcEENS0_9allocatorIcEEEEE4NodeC2ERKS6_
FN:16,_ZN5QueueIiEC2Ev
FN:19,_ZN5QueueIiED2Ev
FN:22,_ZN5QueueIiEC2EOS0_
FN:25,_ZN5QueueIiEaSEOS0_
FN:30,_ZN5QueueIiE4pushERKi
FN:45,_ZN5QueueIiE3popEv
FN:62,_ZNK5QueueIiE5emptyEv
FN:67,_ZNK5QueueIiE9serializeEv
FN:78,_ZN5QueueIiE11deserializeERKNSt3__112basic_stringIcNS1_11char_traitsIcEENS1_9allocatorIcEEEE
FN:11,_ZN5QueueIiE4NodeC2ERKi
FNDA:4,_ZN5QueueINSt3__112basic_stringIcNS0_11char_traitsIcEENS0_9allocatorIcEEEEEC2Ev
FNDA:4,_ZN5QueueINSt3__112basic_stringIcNS0_11char_traitsIcEENS0_9allocatorIcEEEEED2Ev
FNDA:0,_ZN5QueueINSt3__112basic_stringIcNS0_11char_traitsIcEENS0_9allocatorIcEEEEEC2EOS7_
FNDA:0,_ZN5QueueINSt3__112basic_stringIcNS0_11char_traitsIcEENS0_9allocatorIcEEEEEaSEOS7_
FNDA:10,_ZN5QueueINSt3__112basic_stringIcNS0_11char_traitsIcEENS0_9allocatorIcEEEEE4pushERKS6_
FNDA:7,_ZN5QueueINSt3__112basic_stringIcNS0_11char_traitsIcEENS0_9allocatorIcEEEEE3popEv
FNDA:30,_ZNK5QueueINSt3__112basic_stringIcNS0_11char_traitsIcEENS0_9allocatorIcEEEEE5emptyEv
FNDA:1,_ZNK5QueueINSt3__112basic_stringIcNS0_11char_traitsIcEENS0_9allocatorIcEEEEE9serializeEv
FNDA:1,_ZN5QueueINSt3__112basic_stringIcNS0_11char_traitsIcEENS0_9allocatorIcEEEEE11deserializeERKS6_
FNDA:10,_ZN5QueueINSt3__112basic_stringIcNS0_11char_traitsIcEENS0_9allocatorIcEEEEE4NodeC2ERKS6_
FNDA:8,_ZN5QueueIiEC2Ev
FNDA:9,_ZN5QueueIiED2Ev
FNDA:1,_ZN5QueueIiEC2EOS0_
FNDA:1,_ZN5QueueIiEaSEOS0_
FNDA:110,_ZN5QueueIiE4pushERKi
FNDA:109,_ZN5QueueIiE3popEv
FNDA:335,_ZNK5QueueIiE5emptyEv
FNDA:1,_ZNK5QueueIiE9serializeEv
FNDA:1,_ZN5QueueIiE11deserializeERKNSt3__112basic_stringIcNS1_11char_traitsIcEENS1_9allocatorIcEEEE
FNDA:110,_ZN5QueueIiE4NodeC2ERKi
FNF:11
FNH:11
DA:11,120
DA:16,12
DA:19,13
DA:22,1
DA:25,1
DA:30,120
DA:31,120
DA:32,120
DA:34,120
DA:35,11
DA:36,11
DA:37,109
DA:38,109
DA:39,109
DA:40,109
DA:41,120
DA:42,120
DA:45,116
DA:46,116
DA:47,1
DA:48,1
DA:49,115
DA:50,115
DA:51,115
DA:54,115
DA:55,8
DA:56,8
DA:58,115
DA:59,116
DA:62,365
DA:63,365
DA:64,365
DA:67,2
DA:68,2
DA:69,2
DA:70,5
DA:71,3
DA:72,3
DA:73,3
DA:74,2
DA:75,2
DA:78,2
DA:79,2
DA:80,2
DA:81,2
DA:83,2
DA:85,2
DA:86,2
DA:88,8
DA:89,6
DA:90,6
DA:91,2
BRDA:34,0,0,11
BRDA:34,0,1,109
BRDA:46,0,0,1
BRDA:46,0,1,115
BRDA:54,0,0,8
BRDA:54,0,1,107
BRDA:70,0,0,3
BRDA:70,0,1,2
BRDA:71,0,0,2
BRDA:71,0,1,1
BRDA:83,0,0,0
BRDA:83,0,1,2
BRDA:88,0,0,6
BRDA:88,0,1,2
BRF:14
BRH:13
LF:53
LH:53
end_of_record
SF:/Users/artemzimin/Documents/LR1_3/DBMS_Lab_Project/DataStructures/Set.cpp
FN:13,_ZNK3SetINSt3__112basic_stringIcNS0_11char_traitsIcEENS0_9allocatorIcEEEEE10manualHashERKS6_
FN:87,_ZN3SetINSt3__112basic_stringIcNS0_11char_traitsIcEENS0_9allocatorIcEEEEE6rehashEv
FN:104,_ZN3SetINSt3__112basic_stringIcNS0_11char_traitsIcEENS0_9allocatorIcEEEEE9checkLoadEv
FN:23,_ZN3SetINSt3__112basic_stringIcNS0_11char_traitsIcEENS0_9allocatorIcEEEEEC2Ev
FN:29,_ZN3SetINSt3__112basic_stringIcNS0_11char_traitsIcEENS0_9allocatorIcEEEEED2Ev
FN:37,_ZN3SetINSt3__112basic_stringIcNS0_11char_traitsIcEENS0_9allocatorIcEEEEEC2ERKS7_
FN:46,_ZN3SetINSt3__112basic_stringIcNS0_11char_traitsIcEENS0_9allocatorIcEEEEEaSERKS7_
FN:62,_ZN3SetINSt3__112basic_stringIcNS0_11char_traitsIcEENS0_9allocatorIcEEEEEC2EOS7_
FN:70,_ZN3SetINSt3__112basic_stringIcNS0_11char_traitsIcEENS0_9allocatorIcEEEEEaSEOS7_
FN:113,_ZN3SetINSt3__112basic_stringIcNS0_11char_traitsIcEENS0_9allocatorIcEEEEE3addERKS6_
FN:158,_ZN3SetINSt3__112basic_stringIcNS0_11char_traitsIcEENS0_9allocatorIcEEEEE6removeERKS6_
FN:141,_ZNK3SetINSt3__112basic_stringIcNS0_11char_traitsIcEENS0_9allocatorIcEEEEE8containsERKS6_
FN:178,_ZNK3SetINSt3__112basic_stringIcNS0_11char_traitsIcEENS0_9allocatorIcEEEEE9set_unionERKS7_
FN:190,_ZNK3SetINSt3__112basic_stringIcNS0_11char_traitsIcEENS0_9allocatorIcEEEEE16set_intersectionERKS7_
FN:205,_ZNK3SetINSt3__112basic_stringIcNS0_11char_traitsIcEENS0_9allocatorIcEEEEE14set_differenceERKS7_
FN:218,_ZNK3SetINSt3__112basic_stringIcNS0_11char_traitsIcEENS0_9allocatorIcEEEEE4sizeEv
FN:223,_ZNK3SetINSt3__112basic_stringIcNS0_11char_traitsIcEENS0_9allocatorIcEEEEE5emptyEv
FN:228,_ZN3SetINSt3__112basic_stringIcNS0_11char_traitsIcEENS0_9allocatorIcEEEEE5clearEv
FN:254,_ZNK3SetINSt3__112basic_stringIcNS0_11char_traitsIcEENS0_9allocatorIcEEEEE9serializeEv
FN:268,_ZN3SetINSt3__112basic_stringIcNS0_11char_traitsIcEENS0_9allocatorIcEEEEE11deserializeERKS6_
FN:237,_ZNK3SetINSt3__112basic_stringIcNS0_11char_traitsIcEENS0_9allocatorIcEEEEE11getElementsEv
FN:6,_ZNK3SetIiE10manualHashERKi
FN:87,_ZN3SetIiE6rehashEv
FN:104,_ZN3SetIiE9checkLoadEv
FN:23,_ZN3SetIiEC2Ev
FN:29,_ZN3SetIiED2Ev
FN:37,_ZN3SetIiEC2ERKS0_
FN:46,_ZN3SetIiEaSERKS0_
FN:62,_ZN3SetIiEC2EOS0_
FN:70,_ZN3SetIiEaSEOS0_
FN:113,_ZN3SetIiE3addERKi
FN:158,_ZN3SetIiE6removeERKi
FN:141,_ZNK3SetIiE8containsERKi
FN:178,_ZNK3SetIiE9set_unionERKS0_
FN:190,_ZNK3SetIiE16set_intersectionERKS0_
FN:205,_ZNK3SetIiE14set_differenceERKS0_
FN:218,_ZNK3SetIiE4sizeEv
FN:223,_ZNK3SetIiE5emptyEv
FN:228,_ZN3SetIiE5clearEv
FN:254,_ZNK3SetIiE9serializeEv
FN:268,_ZN3SetIiE11deserializeERKNSt3__112basic_stringIcNS1_11char_traitsIcEENS1_9allocatorIcEEEE
FN:237,_ZNK3SetIiE11getElementsEv
FNDA:216,_ZNK3SetINSt3__112basic_stringIcNS0_11char_traitsIcEENS0_9allocatorIcEEEEE10manualHashERKS6_
FNDA:2,_ZN3SetINSt3__112basic_stringIcNS0_11char_traitsIcEENS0_9allocatorIcEEEEE6rehashEv
FNDA:139,_ZN3SetINSt3__112basic_stringIcNS0_11char_traitsIcEENS0_9allocatorIcEEEEE9checkLoadEv
FNDA:47,_ZN3SetINSt3__112basic_stringIcNS0_11char_traitsIcEENS0_9allocatorIcEEEEEC2Ev
FNDA:49,_ZN3SetINSt3__112basic_stringIcNS0_11char_traitsIcEENS0_9allocatorIcEEEEED2Ev
FNDA:1,_ZN3SetINSt3__112basic_stringIcNS0_11char_traitsIcEENS0_9allocatorIcEEEEEC2ERKS7_
FNDA:2,_ZN3SetINSt3__112basic_stringIcNS0_11char_traitsIcEENS0_9allocatorIcEEEEEaSERKS7_
FNDA:1,_ZN3SetINSt3__112basic_stringIcNS0_11char_traitsIcEENS0_9allocatorIcEEEEEC2EOS7_
FNDA:1,_ZN3SetINSt3__112basic_stringIcNS0_11char_traitsIcEENS0_9allocatorIcEEEEEaSEOS7_
FNDA:139,_ZN3SetINSt3__112basic_stringIcNS0_11char_traitsIcEENS0_9allocatorIcEEEEE3addERKS6_
FNDA:8,_ZN3SetINSt3__112basic_stringIcNS0_11char_traitsIcEENS0_9allocatorIcEEEEE6removeERKS6_
FNDA:71,_ZNK3SetINSt3__112basic_stringIcNS0_11char_traitsIcEENS0_9allocatorIcEEEEE8containsERKS6_
FNDA:3,_ZNK3SetINSt3__112basic_stringIcNS0_11char_traitsIcEENS0_9allocatorIcEEEEE9set_unionERKS7_
FNDA:2,_ZNK3SetINSt3__112basic_stringIcNS0_11char_traitsIcEENS0_9allocatorIcEEEEE16set_intersectionERKS7_
FNDA:2,_ZNK3SetINSt3__112basic_stringIcNS0_11char_traitsIcEENS0_9allocatorIcEEEEE14set_differenceERKS7_
FNDA:27,_ZNK3SetINSt3__112basic_stringIcNS0_11char_traitsIcEENS0_9allocatorIcEEEEE4sizeEv
FNDA:13,_ZNK3SetINSt3__112basic_stringIcNS0_11char_traitsIcEENS0_9allocatorIcEEEEE5emptyEv
FNDA:4,_ZN3SetINSt3__112basic_stringIcNS0_11char_traitsIcEENS0_9allocatorIcEEEEE5clearEv
FNDA:2,_ZNK3SetINSt3__112basic_stringIcNS0_11char_traitsIcEENS0_9allocatorIcEEEEE9serializeEv
FNDA:3,_ZN3SetINSt3__112basic_stringIcNS0_11char_traitsIcEENS0_9allocatorIcEEEEE11deserializeERKS6_
FNDA:6,_ZNK3SetINSt3__112basic_stringIcNS0_11char_traitsIcEENS0_9allocatorIcEEEEE11getElementsEv
FNDA:117,_ZNK3SetIiE10manualHashERKi
FNDA:2,_ZN3SetIiE6rehashEv
FNDA:80,_ZN3SetIiE9checkLoadEv
FNDA:14,_ZN3SetIiEC2Ev
FNDA:14,_ZN3SetIiED2Ev
FNDA:0,_ZN3SetIiEC2ERKS0_
FNDA:0,_ZN3SetIiEaSERKS0_
FNDA:0,_ZN3SetIiEC2EOS0_
FNDA:0,_ZN3SetIiEaSEOS0_
FNDA:80,_ZN3SetIiE3addERKi
FNDA:1,_ZN3SetIiE6removeERKi
FNDA:36,_ZNK3SetIiE8containsERKi
FNDA:1,_ZNK3SetIiE9set_unionERKS0_
FNDA:1,_ZNK3SetIiE16set_intersectionERKS0_
FNDA:1,_ZNK3SetIiE14set_differenceERKS0_
FNDA:9,_ZNK3SetIiE4sizeEv
FNDA:3,_ZNK3SetIiE5emptyEv
FNDA:0,_ZN3SetIiE5clearEv
FNDA:0,_ZNK3SetIiE9serializeEv
FNDA:0,_ZN3SetIiE11deserializeERKNSt3__112basic_stringIcNS1_11char_traitsIcEENS1_9allocatorIcEEEE
FNDA:1,_ZNK3SetIiE11getElementsEv
FNF:22
FNH:22
DA:6,117
DA:8,117
DA:9,117
DA:13,216
DA:14,216
DA:15,827
DA:16,827
DA:17,827
DA:18,216
DA:19,216
DA:23,61
DA:24,61
DA:25,61
DA:29,63
DA:30,63
DA:31,63
DA:37,1
DA:38,1
DA:39,17
DA:40,16
DA:41,16
DA:42,1
DA:46,2
DA:47,2
DA:48,1
DA:49,1
DA:50,1
DA:51,1
DA:52,17
DA:53,16
DA:54,16
DA:55,1
DA:56,2
DA:57,2
DA:62,1
DA:63,1
DA:64,1
DA:65,1
DA:66,1
DA:70,1
DA:71,1
DA:72,1
DA:73,1
DA:74,1
DA:75,1
DA:77,1
DA:78,1
DA:79,1
DA:80,1
DA:81,1
DA:82,1
DA:87,4
DA:88,4
DA:89,4
DA:91,4
DA:92,4
DA:93,4
DA:95,100
DA:96,96
DA:97,60
DA:98,60
DA:99,96
DA:100,4
DA:101,4
DA:104,219
DA:105,219
DA:106,4
DA:107,4
DA:108,219
DA:113,219
DA:114,219
DA:115,219
DA:116,219
DA:118,242
DA:119,242
DA:121,215
DA:122,215
DA:123,215
DA:124,215
DA:125,215
DA:126,215
DA:128,27
DA:129,4
DA:130,4
DA:132,23
DA:133,2
DA:134,2
DA:136,23
DA:137,23
DA:138,219
DA:141,107
DA:142,107
DA:143,106
DA:145,126
DA:146,126
DA:147,18
DA:148,18
DA:149,108
DA:150,88
DA:151,88
DA:152,20
DA:153,20
DA:154,0
DA:155,106
DA:158,9
DA:159,9
DA:160,8
DA:162,8
DA:163,8
DA:164,1
DA:165,1
DA:166,7
DA:167,7
DA:168,7
DA:169,7
DA:170,7
DA:171,0
DA:172,0
DA:173,8
DA:178,4
DA:179,4
DA:180,68
DA:181,64
DA:182,64
DA:183,68
DA:184,64
DA:185,64
DA:186,4
DA:187,4
DA:190,3
DA:191,3
DA:193,3
DA:194,3
DA:196,51
DA:197,48
DA:198,2
DA:199,2
DA:200,48
DA:201,3
DA:202,3
DA:205,3
DA:206,3
DA:207,51
DA:208,48
DA:209,2
DA:210,2
DA:211,48
DA:212,3
DA:213,3
DA:218,36
DA:219,36
DA:220,36
DA:223,16
DA:224,16
DA:225,16
DA:228,4
DA:229,4
DA:230,4
DA:231,4
DA:232,4
DA:233,4
DA:237,7
DA:238,7
DA:239,1
DA:240,1
DA:241,6
DA:242,6
DA:243,102
DA:244,96
DA:245,15
DA:246,15
DA:247,96
DA:248,6
DA:249,7
DA:254,2
DA:255,2
DA:256,2
DA:257,34
DA:258,32
DA:259,3
DA:260,3
DA:261,3
DA:262,3
DA:263,32
DA:264,2
DA:265,2
DA:268,3
DA:269,3
DA:270,3
DA:271,3
DA:272,8
DA:273,5
DA:274,5
DA:275,3
BRDA:15,0,0,827
BRDA:15,0,1,216
BRDA:39,0,0,16
BRDA:39,0,1,1
BRDA:47,0,0,1
BRDA:47,0,1,1
BRDA:52,0,0,16
BRDA:52,0,1,1
BRDA:71,0,0,1
BRDA:71,0,1,0
BRDA:95,0,0,96
BRDA:95,0,1,4
BRDA:96,0,0,60
BRDA:96,0,1,36
BRDA:105,0,0,4
BRDA:105,0,1,215
BRDA:118,0,0,242
BRDA:118,0,1,0
BRDA:119,0,0,215
BRDA:119,0,1,27
BRDA:121,0,0,2
BRDA:121,0,1,213
BRDA:128,0,0,24
BRDA:128,0,1,3
BRDA:128,1,2,4
BRDA:128,1,3,20
BRDA:132,0,0,3
BRDA:132,0,1,20
BRDA:132,1,2,2
BRDA:132,1,3,1
BRDA:142,0,0,1
BRDA:142,0,1,106
BRDA:145,0,0,126
BRDA:145,0,1,0
BRDA:146,0,0,18
BRDA:146,0,1,108
BRDA:149,0,0,104
BRDA:149,0,1,4
BRDA:149,1,2,88
BRDA:149,1,3,16
BRDA:159,0,0,1
BRDA:159,0,1,8
BRDA:162,0,0,8
BRDA:162,0,1,0
BRDA:163,0,0,1
BRDA:163,0,1,7
BRDA:166,0,0,7
BRDA:166,0,1,0
BRDA:166,1,2,7
BRDA:166,1,3,0
BRDA:180,0,0,64
BRDA:180,0,1,4
BRDA:181,0,0,5
BRDA:181,0,1,59
BRDA:183,0,0,64
BRDA:183,0,1,4
BRDA:184,0,0,5
BRDA:184,0,1,59
BRDA:193,0,0,0
BRDA:193,0,1,3
BRDA:194,0,0,0
BRDA:194,0,1,3
BRDA:196,0,0,48
BRDA:196,0,1,3
BRDA:197,0,0,5
BRDA:197,0,1,43
BRDA:197,1,2,2
BRDA:197,1,3,3
BRDA:207,0,0,48
BRDA:207,0,1,3
BRDA:208,0,0,6
BRDA:208,0,1,42
BRDA:208,1,2,2
BRDA:208,1,3,4
BRDA:238,0,0,1
BRDA:238,0,1,6
BRDA:243,0,0,96
BRDA:243,0,1,6
BRDA:244,0,0,15
BRDA:244,0,1,81
BRDA:257,0,0,32
BRDA:257,0,1,2
BRDA:258,0,0,3
BRDA:258,0,1,29
BRDA:259,0,0,2
BRDA:259,0,1,1
BRDA:272,0,0,5
BRDA:272,0,1,3
BRF:88
BRH:80
LF:194
LH:191
end_of_record
SF:/Users/artemzimin/Documents/LR1_3/DBMS_Lab_Project/DataStructures/SinglyLinkedList.cpp
FN:7,_ZN16SinglyLinkedListINSt3__112basic_stringIcNS0_11char_traitsIcEENS0_9allocatorIcEEEEE4NodeC2ES6_
FN:9,_ZN16SinglyLinkedListINSt3__112basic_stringIcNS0_11char_traitsIcEENS0_9allocatorIcEEEEEC2Ev
FN:10,_ZN16SinglyLinkedListINSt3__112basic_stringIcNS0_11char_traitsIcEENS0_9allocatorIcEEEEED2Ev
FN:11,_ZN16SinglyLinkedListINSt3__112basic_stringIcNS0_11char_traitsIcEENS0_9allocatorIcEEEEEC2EOS7_
FN:12,_ZN16SinglyLinkedListINSt3__112basic_stringIcNS0_11char_traitsIcEENS0_9allocatorIcEEEEEaSEOS7_
FN:14,_ZN16SinglyLinkedListINSt3__112basic_stringIcNS0_11char_traitsIcEENS0_9allocatorIcEEEEE10push_frontERKS6_
FN:45,_ZN16SinglyLinkedListINSt3__112basic_stringIcNS0_11char_traitsIcEENS0_9allocatorIcEEEEE9push_backERKS6_
FN:56,_ZN16SinglyLinkedListINSt3__112basic_stringIcNS0_11char_traitsIcEENS0_9allocatorIcEEEEE9pop_frontEv
FN:65,_ZN16SinglyLinkedListINSt3__112basic_stringIcNS0_11char_traitsIcEENS0_9allocatorIcEEEEE8pop_backEv
FN:29,_ZN16SinglyLinkedListINSt3__112basic_stringIcNS0_11char_traitsIcEENS0_9allocatorIcEEEEE12remove_valueERKS6_
FN:22,_ZNK16SinglyLinkedListINSt3__112basic_stringIcNS0_11char_traitsIcEENS0_9allocatorIcEEEEE4findERKS6_
FN:95,_ZN16SinglyLinkedListINSt3__112basic_stringIcNS0_11char_traitsIcEENS0_9allocatorIcEEEEE12insert_afterERKS6_S9_
FN:113,_ZN16SinglyLinkedListINSt3__112basic_stringIcNS0_11char_traitsIcEENS0_9allocatorIcEEEEE13insert_beforeERKS6_S9_
FN:135,_ZN16SinglyLinkedListINSt3__112basic_stringIcNS0_11char_traitsIcEENS0_9allocatorIcEEEEE12remove_afterERKS6_
FN:151,_ZN16SinglyLinkedListINSt3__112basic_stringIcNS0_11char_traitsIcEENS0_9allocatorIcEEEEE13remove_beforeERKS6_
FN:83,_ZNK16SinglyLinkedListINSt3__112basic_stringIcNS0_11char_traitsIcEENS0_9allocatorIcEEEEE9serializeEv
FN:88,_ZN16SinglyLinkedListINSt3__112basic_stringIcNS0_11char_traitsIcEENS0_9allocatorIcEEEEE11deserializeERKS6_
FNDA:55,_ZN16SinglyLinkedListINSt3__112basic_stringIcNS0_11char_traitsIcEENS0_9allocatorIcEEEEE4NodeC2ES6_
FNDA:29,_ZN16SinglyLinkedListINSt3__112basic_stringIcNS0_11char_traitsIcEENS0_9allocatorIcEEEEEC2Ev
FNDA:29,_ZN16SinglyLinkedListINSt3__112basic_stringIcNS0_11char_traitsIcEENS0_9allocatorIcEEEEED2Ev
FNDA:0,_ZN16SinglyLinkedListINSt3__112basic_stringIcNS0_11char_traitsIcEENS0_9allocatorIcEEEEEC2EOS7_
FNDA:0,_ZN16SinglyLinkedListINSt3__112basic_stringIcNS0_11char_traitsIcEENS0_9allocatorIcEEEEEaSEOS7_
FNDA:4,_ZN16SinglyLinkedListINSt3__112basic_stringIcNS0_11char_traitsIcEENS0_9allocatorIcEEEEE10push_frontERKS6_
FNDA:47,_ZN16SinglyLinkedListINSt3__112basic_stringIcNS0_11char_traitsIcEENS0_9allocatorIcEEEEE9push_backERKS6_
FNDA:5,_ZN16SinglyLinkedListINSt3__112basic_stringIcNS0_11char_traitsIcEENS0_9allocatorIcEEEEE9pop_frontEv
FNDA:3,_ZN16SinglyLinkedListINSt3__112basic_stringIcNS0_11char_traitsIcEENS0_9allocatorIcEEEEE8pop_backEv
FNDA:5,_ZN16SinglyLinkedListINSt3__112basic_stringIcNS0_11char_traitsIcEENS0_9allocatorIcEEEEE12remove_valueERKS6_
FNDA:6,_ZNK16SinglyLinkedListINSt3__112basic_stringIcNS0_11char_traitsIcEENS0_9allocatorIcEEEEE4findERKS6_
FNDA:3,_ZN16SinglyLinkedListINSt3__112basic_stringIcNS0_11char_traitsIcEENS0_9allocatorIcEEEEE12insert_afterERKS6_S9_
FNDA:5,_ZN16SinglyLinkedListINSt3__112basic_stringIcNS0_11char_traitsIcEENS0_9allocatorIcEEEEE13insert_beforeERKS6_S9_
FNDA:3,_ZN16SinglyLinkedListINSt3__112basic_stringIcNS0_11char_traitsIcEENS0_9allocatorIcEEEEE12remove_afterERKS6_
FNDA:4,_ZN16SinglyLinkedListINSt3__112basic_stringIcNS0_11char_traitsIcEENS0_9allocatorIcEEEEE13remove_beforeERKS6_
FNDA:26,_ZNK16SinglyLinkedListINSt3__112basic_stringIcNS0_11char_traitsIcEENS0_9allocatorIcEEEEE9serializeEv
FNDA:1,_ZN16SinglyLinkedListINSt3__112basic_stringIcNS0_11char_traitsIcEENS0_9allocatorIcEEEEE11deserializeERKS6_
FNF:17
FNH:15
DA:7,55
DA:9,29
DA:10,29
DA:11,0
DA:12,0
DA:14,4
DA:15,4
DA:16,4
DA:17,2
DA:18,4
DA:19,4
DA:20,4
DA:22,6
DA:23,11
DA:24,8
DA:25,8
DA:26,3
DA:27,6
DA:29,5
DA:30,5
DA:31,4
DA:32,1
DA:33,1
DA:34,1
DA:35,3
DA:36,3
DA:37,0
DA:38,0
DA:39,3
DA:40,3
DA:41,3
DA:42,3
DA:43,3
DA:44,3
DA:45,47
DA:46,47
DA:47,47
DA:48,24
DA:49,24
DA:50,24
DA:51,23
DA:52,23
DA:53,23
DA:54,47
DA:55,47
DA:56,5
DA:57,5
DA:58,4
DA:59,4
DA:60,4
DA:61,4
DA:62,4
DA:63,5
DA:65,3
DA:66,3
DA:67,2
DA:68,2
DA:69,1
DA:70,1
DA:71,1
DA:72,1
DA:73,1
DA:74,0
DA:75,0
DA:76,1
DA:77,1
DA:78,1
DA:79,2
DA:80,2
DA:81,3
DA:83,26
DA:84,26
DA:85,67
DA:86,26
DA:87,26
DA:88,1
DA:89,1
DA:90,1
DA:91,1
DA:92,4
DA:93,1
DA:95,3
DA:96,3
DA:97,4
DA:98,1
DA:99,1
DA:101,3
DA:103,2
DA:104,2
DA:105,2
DA:106,2
DA:107,1
DA:108,1
DA:109,2
DA:110,2
DA:113,5
DA:114,5
DA:116,4
DA:117,1
DA:118,1
DA:119,1
DA:121,3
DA:122,3
DA:123,0
DA:124,0
DA:126,3
DA:128,2
DA:129,2
DA:130,2
DA:131,2
DA:132,2
DA:135,3
DA:136,3
DA:137,6
DA:138,3
DA:139,3
DA:141,3
DA:142,1
DA:143,0
DA:144,0
DA:146,1
DA:147,1
DA:148,1
DA:151,4
DA:152,4
DA:154,4
DA:155,1
DA:156,1
DA:157,1
DA:159,3
DA:160,3
DA:161,1
DA:162,1
DA:163,1
DA:164,1
DA:165,1
DA:166,0
DA:167,0
DA:168,3
BRDA:16,0,0,2
BRDA:16,0,1,2
BRDA:23,0,0,8
BRDA:23,0,1,3
BRDA:24,0,0,3
BRDA:24,0,1,5
BRDA:30,0,0,1
BRDA:30,0,1,4
BRDA:31,0,0,1
BRDA:31,0,1,3
BRDA:36,0,0,3
BRDA:36,0,1,0
BRDA:36,1,2,0
BRDA:36,1,3,3
BRDA:39,0,0,3
BRDA:39,0,1,0
BRDA:40,0,0,2
BRDA:40,0,1,1
BRDA:47,0,0,24
BRDA:47,0,1,23
BRDA:57,0,0,1
BRDA:57,0,1,4
BRDA:59,0,0,0
BRDA:59,0,1,4
BRDA:66,0,0,1
BRDA:66,0,1,2
BRDA:68,0,0,1
BRDA:68,0,1,1
BRDA:73,0,0,0
BRDA:73,0,1,1
BRDA:85,0,0,41
BRDA:85,0,1,26
BRDA:85,1,2,19
BRDA:85,1,3,22
BRDA:92,0,0,3
BRDA:92,0,1,1
BRDA:97,0,0,3
BRDA:97,0,1,1
BRDA:97,1,2,1
BRDA:97,1,3,2
BRDA:101,0,0,1
BRDA:101,0,1,2
BRDA:106,0,0,1
BRDA:106,0,1,1
BRDA:114,0,0,1
BRDA:114,0,1,4
BRDA:116,0,0,1
BRDA:116,0,1,3
BRDA:122,0,0,2
BRDA:122,0,1,1
BRDA:122,1,2,0
BRDA:122,1,3,2
BRDA:126,0,0,1
BRDA:126,0,1,2
BRDA:137,0,0,5
BRDA:137,0,1,1
BRDA:137,1,2,3
BRDA:137,1,3,2
BRDA:141,0,0,1
BRDA:141,0,1,2
BRDA:141,1,2,1
BRDA:141,1,3,1
BRDA:142,0,0,0
BRDA:142,0,1,1
BRDA:152,0,0,0
BRDA:152,0,1,4
BRDA:152,1,2,0
BRDA:152,1,3,4
BRDA:154,0,0,1
BRDA:154,0,1,3
BRDA:160,0,0,3
BRDA:160,0,1,0
BRDA:160,1,2,1
BRDA:160,1,3,2
BRDA:161,0,0,1
BRDA:161,0,1,0
BRF:76
BRH:65
LF:139
LH:127
end_of_record
SF:/Users/artemzimin/Documents/LR1_3/DBMS_Lab_Project/DataStructures/Stack.cpp
FN:17,_ZN5StackINSt3__112basic_stringIcNS0_11char_traitsIcEENS0_9allocatorIcEEEEEC2Ev
FN:20,_ZN5StackINSt3__112basic_stringIcNS0_11char_traitsIcEENS0_9allocatorIcEEEEED2Ev
FN:30,_ZN5StackINSt3__112basic_stringIcNS0_11char_traitsIcEENS0_9allocatorIcEEEEEC2EOS7_
FN:35,_ZN5StackINSt3__112basic_stringIcNS0_11char_traitsIcEENS0_9allocatorIcEEEEEaSEOS7_
FN:46,_ZN5StackINSt3__112basic_stringIcNS0_11char_traitsIcEENS0_9allocatorIcEEEEE4pushERKS6_
FN:54,_ZN5StackINSt3__112basic_stringIcNS0_11char_traitsIcEENS0_9allocatorIcEEEEE3popEv
FN:66,_ZNK5StackINSt3__112basic_stringIcNS0_11char_traitsIcEENS0_9allocatorIcEEEEE4peekEv
FN:75,_ZNK5StackINSt3__112basic_stringIcNS0_11char_traitsIcEENS0_9allocatorIcEEEEE5emptyEv
FN:81,_ZNK5StackINSt3__112basic_stringIcNS0_11char_traitsIcEENS0_9allocatorIcEEEEE9serializeEv
FN:92,_ZN5StackINSt3__112basic_stringIcNS0_11char_traitsIcEENS0_9allocatorIcEEEEE11deserializeERKS6_
FN:12,_ZN5StackINSt3__112basic_stringIcNS0_11char_traitsIcEENS0_9allocatorIcEEEEE4NodeC2ES6_
FN:17,_ZN5StackIiEC2Ev
FN:20,_ZN5StackIiED2Ev
FN:30,_ZN5StackIiEC2EOS0_
FN:35,_ZN5StackIiEaSEOS0_
FN:46,_ZN5StackIiE4pushERKi
FN:54,_ZN5StackIiE3popEv
FN:66,_ZNK5StackIiE4peekEv
FN:75,_ZNK5StackIiE5emptyEv
FN:81,_ZNK5StackIiE9serializeEv
FN:92,_ZN5StackIiE11deserializeERKNSt3__112basic_stringIcNS1_11char_traitsIcEENS1_9allocatorIcEEEE
FN:12,_ZN5StackIiE4NodeC2Ei
FNDA:11,_ZN5StackINSt3__112basic_stringIcNS0_11char_traitsIcEENS0_9allocatorIcEEEEEC2Ev
FNDA:11,_ZN5StackINSt3__112basic_stringIcNS0_11char_traitsIcEENS0_9allocatorIcEEEEED2Ev
FNDA:0,_ZN5StackINSt3__112basic_stringIcNS0_11char_traitsIcEENS0_9allocatorIcEEEEEC2EOS7_
FNDA:0,_ZN5StackINSt3__112basic_stringIcNS0_11char_traitsIcEENS0_9allocatorIcEEEEEaSEOS7_
FNDA:19,_ZN5StackINSt3__112basic_stringIcNS0_11char_traitsIcEENS0_9allocatorIcEEEEE4pushERKS6_
FNDA:12,_ZN5StackINSt3__112basic_stringIcNS0_11char_traitsIcEENS0_9allocatorIcEEEEE3popEv
FNDA:1,_ZNK5StackINSt3__112basic_stringIcNS0_11char_traitsIcEENS0_9allocatorIcEEEEE4peekEv
FNDA:26,_ZNK5StackINSt3__112basic_stringIcNS0_11char_traitsIcEENS0_9allocatorIcEEEEE5emptyEv
FNDA:3,_ZNK5StackINSt3__112basic_stringIcNS0_11char_traitsIcEENS0_9allocatorIcEEEEE9serializeEv
FNDA:3,_ZN5StackINSt3__112basic_stringIcNS0_11char_traitsIcEENS0_9allocatorIcEEEEE11deserializeERKS6_
FNDA:19,_ZN5StackINSt3__112basic_stringIcNS0_11char_traitsIcEENS0_9allocatorIcEEEEE4NodeC2ES6_
FNDA:14,_ZN5StackIiEC2Ev
FNDA:15,_ZN5StackIiED2Ev
FNDA:1,_ZN5StackIiEC2EOS0_
FNDA:1,_ZN5StackIiEaSEOS0_
FNDA:22,_ZN5StackIiE4pushERKi
FNDA:20,_ZN5StackIiE3popEv
FNDA:6,_ZNK5StackIiE4peekEv
FNDA:51,_ZNK5StackIiE5emptyEv
FNDA:1,_ZNK5StackIiE9serializeEv
FNDA:1,_ZN5StackIiE11deserializeERKNSt3__112basic_stringIcNS1_11char_traitsIcEENS1_9allocatorIcEEEE
FNDA:22,_ZN5StackIiE4NodeC2Ei
FNF:12
FNH:12
DA:12,41
DA:17,25
DA:20,26
DA:22,34
DA:23,8
DA:24,8
DA:25,26
DA:30,1
DA:31,1
DA:32,1
DA:35,1
DA:36,1
DA:37,1
DA:38,1
DA:39,1
DA:40,1
DA:41,1
DA:42,1
DA:46,41
DA:47,41
DA:48,41
DA:49,41
DA:50,41
DA:51,41
DA:54,32
DA:55,32
DA:56,1
DA:57,1
DA:58,31
DA:59,31
DA:60,31
DA:61,31
DA:62,32
DA:66,7
DA:67,7
DA:68,1
DA:69,1
DA:70,6
DA:71,7
DA:75,77
DA:76,77
DA:77,77
DA:81,4
DA:82,4
DA:83,4
DA:84,9
DA:85,5
DA:86,5
DA:87,5
DA:88,4
DA:89,4
DA:92,4
DA:93,4
DA:94,4
DA:95,4
DA:97,4
DA:98,4
DA:99,4
DA:102,12
DA:103,8
DA:104,8
DA:108,12
DA:109,8
DA:110,8
DA:111,4
BRDA:22,0,0,8
BRDA:22,0,1,26
BRDA:36,0,0,1
BRDA:36,0,1,0
BRDA:55,0,0,1
BRDA:55,0,1,31
BRDA:67,0,0,1
BRDA:67,0,1,6
BRDA:84,0,0,5
BRDA:84,0,1,4
BRDA:85,0,0,2
BRDA:85,0,1,3
BRDA:95,0,0,0
BRDA:95,0,1,4
BRDA:102,0,0,8
BRDA:102,0,1,4
BRDA:108,0,0,8
BRDA:108,0,1,4
BRF:18
BRH:16
LF:66
LH:66
end_of_record
SF:/Users/artemzimin/Documents/LR1_3/DBMS_Lab_Project/StorageManager.cpp
FN:5,_ZN14StorageManagerC2ERKNSt3__112basic_stringIcNS0_11char_traitsIcEENS0_9allocatorIcEEEE
FN:6,_ZN14StorageManager4loadER4DBMS
FN:20,_ZN14StorageManager4saveERK4DBMS
FNDA:2,_ZN14StorageManagerC2ERKNSt3__112basic_stringIcNS0_11char_traitsIcEENS0_9allocatorIcEEEE
FNDA:2,_ZN14StorageManager4loadER4DBMS
FNDA:1,_ZN14StorageManager4saveERK4DBMS
FNF:3
FNH:3
DA:5,2
DA:6,2
DA:7,2
DA:8,2
DA:9,1
DA:10,1
DA:11,3
DA:12,2
DA:13,2
DA:14,2
DA:15,2
DA:16,2
DA:17,2
DA:18,2
DA:19,1
DA:20,1
DA:21,1
DA:22,1
DA:23,1
DA:24,1
BRDA:8,0,0,1
BRDA:8,0,1,1
BRDA:11,0,0,2
BRDA:11,0,1,1
BRDA:16,0,0,2
BRDA:16,0,1,0
BRDA:16,1,2,2
BRDA:16,1,3,0
BRDA:22,0,0,0
BRDA:22,0,1,1
BRF:10
BRH:7
LF:20
LH:20
end_of_record
